(lp0
ccopy_reg
_reconstructor
p1
(c__main__
StraightTrack
p2
c__builtin__
object
p3
Ntp4
Rp5
(dp6
S'direction'
p7
g1
(cvec2d
vec2d
p8
g3
Ntp9
Rp10
(lp11
F0.38268343236509006
aF-0.92387953251128663
absS'_Sprite__g'
p12
(dp13
sS'layer'
p14
I0
sS'filename'
p15
S'straight.png'
p16
sS'position'
p17
g1
(g8
g3
Ntp18
Rp19
(lp20
I549
aI683
absbag1
(c__main__
CurvedTrack
p21
g3
Ntp22
Rp23
(dp24
g7
g1
(g8
g3
Ntp25
Rp26
(lp27
F-1.1102230246251565e-16
aF1.0
absg12
(dp28
sg14
I0
sg15
S'curve2.png'
p29
sg17
g1
(g8
g3
Ntp30
Rp31
(lp32
I72
aI687
absbag1
(g21
g3
Ntp33
Rp34
(dp35
g7
g1
(g8
g3
Ntp36
Rp37
(lp38
F0.70710678118654724
aF-0.70710678118654668
absg12
(dp39
sg14
I0
sg15
g29
sg17
g1
(g8
g3
Ntp40
Rp41
(lp42
I453
aI846
absbag1
(g21
g3
Ntp43
Rp44
(dp45
g7
g1
(g8
g3
Ntp46
Rp47
(lp48
F0.70710678118654746
aF0.70710678118654757
absg12
(dp49
sg14
I0
sg15
g29
sg17
g1
(g8
g3
Ntp50
Rp51
(lp52
I136
aI845
absbag1
(g21
g3
Ntp53
Rp54
(dp55
g7
g1
(g8
g3
Ntp56
Rp57
(lp58
F1.0
aF0.0
absg12
(dp59
sg14
I0
sg15
g29
sg17
g1
(g8
g3
Ntp60
Rp61
(lp62
I295
aI912
absbag1
(g2
g3
Ntp63
Rp64
(dp65
S'direction'
p66
g1
(g8
g3
Ntp67
Rp68
(lp69
F0.92387953251128641
aF0.38268343236509
absS'_Sprite__g'
p70
(dp71
sS'layer'
p72
I0
sS'filename'
p73
S'straight.png'
p74
sS'position'
p75
g1
(g8
g3
Ntp76
Rp77
(lp78
I479
aI517
absbag1
(g21
g3
Ntp79
Rp80
(dp81
S'direction'
p82
g1
(g8
g3
Ntp83
Rp84
(lp85
F-0.70710678118654768
aF0.70710678118654746
absS'_Sprite__g'
p86
(dp87
sS'layer'
p88
I0
sS'filename'
p89
S'curve2.png'
p90
sS'position'
p91
g1
(g8
g3
Ntp92
Rp93
(lp94
I138
aI530
absbag1
(g21
g3
Ntp95
Rp96
(dp97
g82
g1
(g8
g3
Ntp98
Rp99
(lp100
F-1.0
aF-1.6653345369377348e-16
absg86
(dp101
sg88
I0
sg89
g90
sg91
g1
(g8
g3
Ntp102
Rp103
(lp104
I297
aI466
absbag1
(g2
g3
Ntp105
Rp106
(dp107
g82
g1
(g8
g3
Ntp108
Rp109
(lp110
F0.92387953251128663
aF0.38268343236509011
absg86
(dp111
sg88
I0
sg89
S'straight.png'
p112
sg91
g1
(g8
g3
Ntp113
Rp114
(lp115
I713
aI614
absbag1
(g2
g3
Ntp116
Rp117
(dp118
g82
g1
(g8
g3
Ntp119
Rp120
(lp121
F0.38268343236509006
aF-0.92387953251128663
absg86
(dp122
sg88
I0
sg89
g112
sg91
g1
(g8
g3
Ntp123
Rp124
(lp125
I643
aI451
absbag1
(g21
g3
Ntp126
Rp127
(dp128
g82
g1
(g8
g3
Ntp129
Rp130
(lp131
F4.4408920985006262e-16
aF-0.99999999999999933
absg86
(dp132
sg88
I0
sg89
g90
sg91
g1
(g8
g3
Ntp133
Rp134
(lp135
I1116
aI443
absbag1
(g21
g3
Ntp136
Rp137
(dp138
g82
g1
(g8
g3
Ntp139
Rp140
(lp141
F0.70710678118654768
aF-0.70710678118654724
absg86
(dp142
sg88
I0
sg89
g90
sg91
g1
(g8
g3
Ntp143
Rp144
(lp145
I1049
aI601
absbag1
(g21
g3
Ntp146
Rp147
(dp148
g82
g1
(g8
g3
Ntp149
Rp150
(lp151
F0.99999999999999978
aF3.8857805861880479e-16
absg86
(dp152
sg88
I0
sg89
g90
sg91
g1
(g8
g3
Ntp153
Rp154
(lp155
I894
aI664
absbag1
(g21
g3
Ntp156
Rp157
(dp158
g82
g1
(g8
g3
Ntp159
Rp160
(lp161
F-1.0
aF-1.6653345369377348e-16
absg86
(dp162
sg88
I0
sg89
g90
sg91
g1
(g8
g3
Ntp163
Rp164
(lp165
I896
aI221
absbag1
(g21
g3
Ntp166
Rp167
(dp168
g82
g1
(g8
g3
Ntp169
Rp170
(lp171
F-0.70710678118654735
aF-0.70710678118654768
absg86
(dp172
sg88
I0
sg89
g90
sg91
g1
(g8
g3
Ntp173
Rp174
(lp175
I1051
aI285
absbag1
(g21
g3
Ntp176
Rp177
(dp178
g82
g1
(g8
g3
Ntp179
Rp180
(lp181
F-0.70710678118654746
aF0.7071067811865468
absg86
(dp182
sg88
I0
sg89
g90
sg91
g1
(g8
g3
Ntp183
Rp184
(lp185
I737
aI286
absbag1
(c__main__
Train
p186
g3
Ntp187
Rp188
(dp189
g7
g1
(g8
g3
Ntp190
Rp191
(lp192
F0.8945540524571638
aF0.44695978256714092
absg12
(dp193
sg14
I1
sg15
S'engine.png'
p194
sg17
g1
(g8
g3
Ntp195
Rp196
(lp197
F985.45631720842857
aF237.77291472317552
absS'speed'
p198
F0.15000000000000002
sbag1
(g186
g3
Ntp199
Rp200
(dp201
g7
g1
(g8
g3
Ntp202
Rp203
(lp204
F-0.92387953251128641
aF-0.38268343236509
absg12
(dp205
sg14
I1
sg15
g194
sg17
g1
(g8
g3
Ntp206
Rp207
(lp208
F435.63643208252688
aF499.03822205569713
absg198
F0.070000000000000007
sba.