(lp0
ccopy_reg
_reconstructor
p1
(c__main__
CurvedTrack
p2
c__builtin__
object
p3
Ntp4
Rp5
(dp6
S'direction'
p7
g1
(cvec2d
vec2d
p8
g3
Ntp9
Rp10
(lp11
F-0.7071067811865479
aF0.7071067811865471
absS'frac'
p12
F0.19660345168853363
sS'target_speed'
p13
I0
sS'layer'
p14
I0
sS'radius'
p15
F227.9116882454314
sS'mirror'
p16
I-1
sS'theta'
p17
F0.7853981633974483
sS'speed'
p18
I0
sS'wheeled'
p19
I00
sS'rect'
p20
cpygame
__rect_constructor
p21
(I497
I-726
I199
I199
tp22
Rp23
sS'_Sprite__g'
p24
(dp25
sS'filename'
p26
S'curve-f.png'
p27
sS'position'
p28
g1
(g8
g3
Ntp29
Rp30
(lp31
F596.5963529079663
aF-627.7420033513146
absbag1
(g2
g3
Ntp32
Rp33
(dp34
S'direction'
p35
g1
(g8
g3
Ntp36
Rp37
(lp38
F-5.551115123125783e-16
aF0.9999999999999997
absg12
F0.19660345168853363
sg13
I0
sS'layer'
p39
I0
sg15
F227.9116882454314
sg16
I-1
sg17
F0.7853981633974483
sg18
I0
sg19
I00
sg20
g21
(I549
I-549
I105
I177
tp40
Rp41
sS'_Sprite__g'
p42
(dp43
sS'filename'
p44
g27
sS'position'
p45
g1
(g8
g3
Ntp46
Rp47
(lp48
F601.2363964906441
aF-461.9440594986177
absbag1
(c__main__
SwitchRight
p49
g3
Ntp50
Rp51
(dp52
S'direction'
p53
g1
(g8
g3
Ntp54
Rp55
(lp56
F1.0
aF4.996003610813204e-16
absg12
F0.19660345168853363
sS'switched'
p57
I00
sg13
I0
sS'layer'
p58
I0
sg15
F227.9116882454314
sg16
I1
sS'theta'
p59
F0.7853981633974483
sg18
I0
sg19
I00
sg20
g21
(I799
I-800
I177
I105
tp60
Rp61
sS'touches'
p62
I11769
sS'_Sprite__g'
p63
(dp64
sS'filename'
p65
S'switch-right-f.png'
p66
sS'swap'
p67
I1
sS'prior_ticks'
p68
I3612058
sS'position'
p69
g1
(g8
g3
Ntp70
Rp71
(lp72
F887.552197030682
aF-748.2598600386556
absbag1
(c__main__
StraightTrack
p73
g3
Ntp74
Rp75
(dp76
S'direction'
p77
g1
(g8
g3
Ntp78
Rp79
(lp80
F-0.707106781186547
aF-0.707106781186548
absS'_Sprite__g'
p81
(dp82
sg13
I0
sS'layer'
p83
I0
sS'filename'
p84
S'straight-f.png'
p85
sS'position'
p86
g1
(g8
g3
Ntp87
Rp88
(lp89
F-304.84206494584635
aF747.1075048567855
absg18
I0
sg19
I00
sg20
g21
(I-404
I647
I200
I200
tp90
Rp91
sbag1
(g73
g3
Ntp92
Rp93
(dp94
S'direction'
p95
g1
(g8
g3
Ntp96
Rp97
(lp98
F-1.0
aF-7.2164496600635185e-16
absS'_Sprite__g'
p99
(dp100
sg13
I0
sS'layer'
p101
I0
sS'filename'
p102
S'straight-f.png'
p103
sS'position'
p104
g1
(g8
g3
Ntp105
Rp106
(lp107
F-68209.96452888421
aF-44099.8317031159
absg18
I0
sg19
I00
sg20
g21
(I-68321
I-44128
I224
I59
tp108
Rp109
sbag1
(g73
g3
Ntp110
Rp111
(dp112
g95
g1
(g8
g3
Ntp113
Rp114
(lp115
F1.0
aF1.6653345369377353e-16
absg99
(dp116
sg13
I0
sg101
I0
sg102
g103
sg104
g1
(g8
g3
Ntp117
Rp118
(lp119
F51802.49048241307
aF1389.0830839269922
absg18
I0
sg19
I00
sg20
g21
(I51690
I1360
I224
I59
tp120
Rp121
sbag1
(g73
g3
Ntp122
Rp123
(dp124
g95
g1
(g8
g3
Ntp125
Rp126
(lp127
F1.0
aF1.6653345369377353e-16
absg99
(dp128
sg13
I0
sg101
I0
sg102
g103
sg104
g1
(g8
g3
Ntp129
Rp130
(lp131
F65838.49048241308
aF-2240.9169160730075
absg18
I0
sg19
I00
sg20
g21
(I65726
I-2269
I224
I59
tp132
Rp133
sbag1
(g73
g3
Ntp134
Rp135
(dp136
g95
g1
(g8
g3
Ntp137
Rp138
(lp139
F1.0
aF1.6653345369377353e-16
absg99
(dp140
sg13
I0
sg101
I0
sg102
g103
sg104
g1
(g8
g3
Ntp141
Rp142
(lp143
F64144.49048241307
aF1389.0830839269922
absg18
I0
sg19
I00
sg20
g21
(I64032
I1360
I224
I59
tp144
Rp145
sbag1
(g49
g3
Ntp146
Rp147
(dp148
S'direction'
p149
g1
(g8
g3
Ntp150
Rp151
(lp152
F0.7071067811865472
aF-0.7071067811865474
absg12
F0.19660345168853363
sS'switched'
p153
I01
sg13
I0
sS'layer'
p154
I0
sg15
F227.9116882454314
sg16
I1
sg59
F0.7853981633974483
sg18
I0
sg19
I00
sg20
g21
(I-578
I-190
I199
I199
tp155
Rp156
sS'touches'
p157
I3126
sS'_Sprite__g'
p158
(dp159
sS'filename'
p160
S'switch-right-f.png'
p161
sS'swap'
p162
I1
sS'prior_ticks'
p163
I3643245
sS'position'
p164
g1
(g8
g3
Ntp165
Rp166
(lp167
F-479.07464116819637
aF-91.72224797158049
absbag1
(g2
g3
Ntp168
Rp169
(dp170
S'direction'
p171
g1
(g8
g3
Ntp172
Rp173
(lp174
F-2.7755575615628914e-16
aF0.9999999999999996
absg12
F0.19660345168853363
sg13
I0
sS'layer'
p175
I0
sg15
F227.9116882454314
sg16
I-1
sS'theta'
p176
F0.7853981633974483
sS'speed'
p177
I0
sg19
I00
sg20
g21
(I-650
I112
I105
I177
tp178
Rp179
sS'_Sprite__g'
p180
(dp181
sS'filename'
p182
g27
sS'position'
p183
g1
(g8
g3
Ntp184
Rp185
(lp186
F-598.9274260587706
aF200.75343506521432
absbag1
(g2
g3
Ntp187
Rp188
(dp189
S'direction'
p190
g1
(g8
g3
Ntp191
Rp192
(lp193
F0.7071067811865478
aF-0.7071067811865472
absg12
F0.19660345168853363
sg13
I0
sS'layer'
p194
I0
sg15
F227.9116882454314
sg16
I-1
sg176
F0.7853981633974483
sS'speed'
p195
I0
sg19
I00
sg20
g21
(I3162
I654
I199
I199
tp196
Rp197
sS'_Sprite__g'
p198
(dp199
sS'filename'
p200
g27
sS'position'
p201
g1
(g8
g3
Ntp202
Rp203
(lp204
F3261.2732025623623
aF753.6470537139563
absbag1
(g2
g3
Ntp205
Rp206
(dp207
g190
g1
(g8
g3
Ntp208
Rp209
(lp210
F1.0
aF2.7755575615628914e-16
absg12
F0.19660345168853363
sg13
I0
sg194
I0
sg15
F227.9116882454314
sg16
I-1
sg176
F0.7853981633974483
sg195
I0
sg19
I00
sg20
g21
(I2974
I906
I177
I105
tp211
Rp212
sg198
(dp213
sg200
g27
sg201
g1
(g8
g3
Ntp214
Rp215
(lp216
F3062.6756213483613
aF958.8066474925826
absbag1
(g2
g3
Ntp217
Rp218
(dp219
S'direction'
p220
g1
(g8
g3
Ntp221
Rp222
(lp223
F-0.7071067811865468
aF-0.7071067811865475
absg12
F0.19660345168853363
sg13
I0
sS'layer'
p224
I0
sg15
F227.9116882454314
sg16
I-1
sg59
F0.7853981633974483
sS'speed'
p225
I0
sg19
I00
sg20
g21
(I2152
I784
I199
I199
tp226
Rp227
sS'_Sprite__g'
p228
(dp229
sS'filename'
p230
g27
sS'position'
p231
g1
(g8
g3
Ntp232
Rp233
(lp234
F2251.897047061807
aF883.8834986801302
absbag1
(c__main__
SwitchLeft
p235
g3
Ntp236
Rp237
(dp238
S'direction'
p239
g1
(g8
g3
Ntp240
Rp241
(lp242
F0.7071067811865475
aF0.7071067811865476
absS'frac'
p243
F0.19660345168853363
sS'switched'
p244
I00
sg13
I0
sS'layer'
p245
I0
sS'radius'
p246
F227.9116882454314
sS'mirror'
p247
I-1
sS'theta'
p248
F0.7853981633974483
sS'speed'
p249
I0
sg19
I00
sS'rect'
p250
g21
(I622
I-448
I199
I199
tp251
Rp252
sS'touches'
p253
I10901
sS'_Sprite__g'
p254
(dp255
sS'prev_direction'
p256
g1
(g8
g3
Ntp257
Rp258
(lp259
F0.7071067811865475
aF0.7071067811865476
absS'filename'
p260
S'switch-left-f.png'
p261
sS'prior_ticks'
p262
I3564060
sS'position'
p263
g1
(g8
g3
Ntp264
Rp265
(lp266
F721.210501724778
aF-349.30094750879454
absbag1
(g49
g3
Ntp267
Rp268
(dp269
S'direction'
p270
g1
(g8
g3
Ntp271
Rp272
(lp273
F-1.0
aF-1.6653345369377348e-16
absS'frac'
p274
F0.19660345168853363
sS'switched'
p275
I01
sg13
I0
sS'layer'
p276
I0
sS'radius'
p277
F227.9116882454314
sS'mirror'
p278
I1
sS'theta'
p279
F0.7853981633974483
sg249
I0
sg19
I00
sS'rect'
p280
g21
(I2320
I909
I177
I105
tp281
Rp282
sS'touches'
p283
I223
sS'_Sprite__g'
p284
(dp285
sS'prev_direction'
p286
g1
(g8
g3
Ntp287
Rp288
(lp289
F-1.0
aF-1.6653345369377348e-16
absS'filename'
p290
S'switch-right-f.png'
p291
sS'prior_ticks'
p292
I3519871
sS'position'
p293
g1
(g8
g3
Ntp294
Rp295
(lp296
F2408.4149037491475
aF961.839342802846
absbag1
(g2
g3
Ntp297
Rp298
(dp299
S'direction'
p300
g1
(g8
g3
Ntp301
Rp302
(lp303
F-0.7071067811865479
aF-0.707106781186547
absS'frac'
p304
F0.19877594239892932
sS'prev_direction'
p305
g1
(g8
g3
Ntp306
Rp307
(lp308
F-0.7071067811865471
aF0.7071067811865479
absg13
I0
sS'layer'
p309
I0
sS'radius'
p310
F228.18158450703123
sS'mirror'
p311
I-1
sS'theta'
p312
F0.39269908169872414
sS'speed'
p313
I0
sg19
I00
sS'rect'
p314
g21
(I3122
I-391
I111
I111
tp315
Rp316
sS'_Sprite__g'
p317
(dp318
sS'filename'
p319
S'curve2-f.png'
p320
sS'position'
p321
g1
(g8
g3
Ntp322
Rp323
(lp324
F3177.199412697916
aF-336.1133361077333
absbag1
(c__main__
Crossing
p325
g3
Ntp326
Rp327
(dp328
S'direction'
p329
g1
(g8
g3
Ntp330
Rp331
(lp332
F0.7071067811865475
aF0.7071067811865476
absS'_Sprite__g'
p333
(dp334
sS'target_speed'
p335
I0
sS'layer'
p336
I0
sS'filename'
p337
S'crossing-f.png'
p338
sS'prev_direction'
p339
g1
(g8
g3
Ntp340
Rp341
(lp342
F0.7071067811865475
aF0.7071067811865476
absS'position'
p343
g1
(g8
g3
Ntp344
Rp345
(lp346
F739.0046383365311
aF247.82839367079862
absg19
I00
sS'rect'
p347
g21
(I697
I205
I84
I84
tp348
Rp349
sbag1
(g2
g3
Ntp350
Rp351
(dp352
g53
g1
(g8
g3
Ntp353
Rp354
(lp355
F3.885780586188048e-16
aF-0.9999999999999999
absg12
F0.19660345168853363
sg13
I0
sg58
I0
sg15
F227.9116882454314
sg16
I-1
sg176
F0.7853981633974483
sg18
I0
sg19
I00
sg20
g21
(I744
I251
I105
I177
tp356
Rp357
sg63
(dp358
sg65
g27
sg69
g1
(g8
g3
Ntp359
Rp360
(lp361
F796.8681012419084
aF339.4305911561841
absbag1
(g2
g3
Ntp362
Rp363
(dp364
S'direction'
p365
g1
(g8
g3
Ntp366
Rp367
(lp368
F0.7071067811865476
aF0.7071067811865475
absg12
F0.19660345168853363
sg13
I0
sS'layer'
p369
I0
sg15
F227.9116882454314
sg16
I-1
sg176
F0.7853981633974483
sS'speed'
p370
I0
sg19
I00
sg20
g21
(I-232
I979
I199
I199
tp371
Rp372
sS'_Sprite__g'
p373
(dp374
sS'filename'
p375
S'curve-f.png'
p376
sS'position'
p377
g1
(g8
g3
Ntp378
Rp379
(lp380
F-133.0317115504021
aF1078.8262489504025
absbag1
(g2
g3
Ntp381
Rp382
(dp383
g77
g1
(g8
g3
Ntp384
Rp385
(lp386
F0.9999999999999997
aF8.326672684688674e-16
absg12
F0.19660345168853363
sg13
I0
sg83
I0
sg15
F227.9116882454314
sg16
I-1
sg17
F0.7853981633974483
sg18
I0
sg19
I00
sg20
g21
(I355
I1079
I177
I105
tp387
Rp388
sg81
(dp389
sg84
g27
sg86
g1
(g8
g3
Ntp390
Rp391
(lp392
F443.41304806007486
aF1131.0313605765848
absbag1
(g2
g3
Ntp393
Rp394
(dp395
S'direction'
p396
g1
(g8
g3
Ntp397
Rp398
(lp399
F0.9999999999999999
aF7.216449660063518e-16
absg12
F0.19660345168853363
sg13
I0
sS'layer'
p400
I0
sg15
F227.9116882454314
sg16
I-1
sS'theta'
p401
F0.7853981633974483
sg225
I0
sg19
I00
sg20
g21
(I75
I1112
I177
I105
tp402
Rp403
sS'_Sprite__g'
p404
(dp405
sS'filename'
p406
g27
sS'position'
p407
g1
(g8
g3
Ntp408
Rp409
(lp410
F163.33205559005577
aF1164.2980437519973
absbag1
(g235
g3
Ntp411
Rp412
(dp413
g329
g1
(g8
g3
Ntp414
Rp415
(lp416
F0.9999999999999999
aF7.216449660063518e-16
absS'frac'
p417
F0.19660345168853363
sS'switched'
p418
I00
sg335
I0
sg336
I0
sS'radius'
p419
F227.9116882454314
sS'mirror'
p420
I-1
sS'theta'
p421
F0.7853981633974483
sg19
I00
sg347
g21
(I2012
I778
I177
I105
tp422
Rp423
sS'touches'
p424
I105
sg333
(dp425
sg339
g1
(g8
g3
Ntp426
Rp427
(lp428
F-0.9238795325112865
aF-0.3826834323650904
absg337
S'switch-left-f.png'
p429
sS'prior_ticks'
p430
I3436362
sg343
g1
(g8
g3
Ntp431
Rp432
(lp433
F2100.6868353420027
aF830.9859276238916
absbag1
(g2
g3
Ntp434
Rp435
(dp436
g329
g1
(g8
g3
Ntp437
Rp438
(lp439
F-0.9238795325112864
aF0.38268343236509056
absg417
F0.19877594239892932
sg339
g1
(g8
g3
Ntp440
Rp441
(lp442
F1.0
aF-8.326672684688676e-16
absg335
I0
sg336
I0
sg419
F228.18158450703123
sg420
I-1
sg421
F0.39269908169872414
sg19
I00
sg347
g21
(I2146
I724
I112
I93
tp443
Rp444
sg333
(dp445
sg337
g320
sg343
g1
(g8
g3
Ntp446
Rp447
(lp448
F2202.7235764401808
aF770.4530397876784
absbag1
(g2
g3
Ntp449
Rp450
(dp451
g220
g1
(g8
g3
Ntp452
Rp453
(lp454
F-1.0
aF-4.440892098500626e-16
absg12
F0.19660345168853363
sg13
I0
sg224
I0
sg15
F227.9116882454314
sg16
I-1
sg59
F0.7853981633974483
sg225
I0
sg19
I00
sg20
g21
(I2406
I1129
I177
I105
tp455
Rp456
sg228
(dp457
sg230
g27
sg231
g1
(g8
g3
Ntp458
Rp459
(lp460
F2494.5292856473184
aF1181.446638998755
absbag1
(g73
g3
Ntp461
Rp462
(dp463
g53
g1
(g8
g3
Ntp464
Rp465
(lp466
F0.9999999999999999
aF7.216449660063518e-16
absg63
(dp467
sg13
I0
sg58
I0
sg65
S'straight-f.png'
p468
sg69
g1
(g8
g3
Ntp469
Rp470
(lp471
F1090.5637846016705
aF990.9966303282262
absg18
I0
sg19
I00
sg20
g21
(I978
I961
I224
I59
tp472
Rp473
sbag1
(c__main__
Piece
p474
g3
Ntp475
Rp476
(dp477
g329
g1
(g8
g3
Ntp478
Rp479
(lp480
F-0.9238795325112866
aF-0.38268343236508995
absg333
(dp481
sg335
I0
sg336
I0
sg337
S'tree-f.png'
p482
sg339
g1
(g8
g3
Ntp483
Rp484
(lp485
F-0.9238795325112866
aF-0.38268343236508995
absg343
g1
(g8
g3
Ntp486
Rp487
(lp488
F889.5172006939774
aF227.5255978100986
absg19
I00
sg347
g21
(I809
I154
I160
I146
tp489
Rp490
sbag1
(g2
g3
Ntp491
Rp492
(dp493
S'direction'
p494
g1
(g8
g3
Ntp495
Rp496
(lp497
F-1.0
aF-6.661338147750939e-16
absg12
F0.19660345168853363
sg13
I0
sS'layer'
p498
I0
sg15
F227.9116882454314
sg16
I-1
sg176
F0.7853981633974483
sg18
I0
sg19
I00
sg20
g21
(I964
I-84
I177
I105
tp499
Rp500
sS'_Sprite__g'
p501
(dp502
sS'filename'
p503
g27
sS'position'
p504
g1
(g8
g3
Ntp505
Rp506
(lp507
F1052.2205005513297
aF-32.699224640391044
absbag1
(g73
g3
Ntp508
Rp509
(dp510
g77
g1
(g8
g3
Ntp511
Rp512
(lp513
F-0.7071067811865469
aF-0.7071067811865479
absg81
(dp514
sg13
I0
sg83
I0
sg84
g85
sg86
g1
(g8
g3
Ntp515
Rp516
(lp517
F1037.3471822905485
aF-632.203609358797
absg18
I0
sg19
I00
sg20
g21
(I937
I-732
I200
I200
tp518
Rp519
sbag1
(g73
g3
Ntp520
Rp521
(dp522
S'direction'
p523
g1
(g8
g3
Ntp524
Rp525
(lp526
F-0.707106781186547
aF-0.707106781186548
absS'_Sprite__g'
p527
(dp528
sg335
I0
sS'layer'
p529
I0
sS'filename'
p530
g85
sS'prev_direction'
p531
g1
(g8
g3
Ntp532
Rp533
(lp534
F-0.707106781186547
aF-0.707106781186548
absS'position'
p535
g1
(g8
g3
Ntp536
Rp537
(lp538
F1194.9549828655142
aF-474.59580878383105
absg19
I00
sS'rect'
p539
g21
(I1094
I-574
I200
I200
tp540
Rp541
sbag1
(g49
g3
Ntp542
Rp543
(dp544
S'direction'
p545
g1
(g8
g3
Ntp546
Rp547
(lp548
F-0.7071067811865477
aF0.7071067811865475
absg12
F0.19660345168853363
sS'switched'
p549
I00
sg13
I0
sS'layer'
p550
I0
sg15
F227.9116882454314
sg16
I1
sg59
F0.7853981633974483
sg18
I0
sg19
I00
sg20
g21
(I1410
I-452
I199
I199
tp551
Rp552
sS'touches'
p553
I11524
sS'_Sprite__g'
p554
(dp555
sS'filename'
p556
S'switch-right-f.png'
p557
sS'swap'
p558
I1
sS'prior_ticks'
p559
I3605698
sS'position'
p560
g1
(g8
g3
Ntp561
Rp562
(lp563
F1509.235179845185
aF-353.35576306808747
absbag1
(g49
g3
Ntp564
Rp565
(dp566
g190
g1
(g8
g3
Ntp567
Rp568
(lp569
F1.0
aF4.996003610813204e-16
absg12
F0.19660345168853363
sS'switched'
p570
I01
sg13
I0
sg194
I0
sg15
F227.9116882454314
sg16
I1
sg17
F0.7853981633974483
sg195
I0
sg19
I00
sg20
g21
(I1433
I-802
I177
I105
tp571
Rp572
sS'touches'
p573
I11486
sg198
(dp574
sg200
S'switch-right-f.png'
p575
sS'swap'
p576
I1
sS'prior_ticks'
p577
I3608554
sg201
g1
(g8
g3
Ntp578
Rp579
(lp580
F1521.7499681253807
aF-750.458192011849
absbag1
(g235
g3
Ntp581
Rp582
(dp583
g53
g1
(g8
g3
Ntp584
Rp585
(lp586
F-1.0
aF1.6653345369377348e-16
absg12
F0.19660345168853363
sg57
I00
sg13
I0
sg58
I0
sg15
F227.9116882454314
sg16
I-1
sg59
F0.7853981633974483
sg18
I0
sg19
I00
sg20
g21
(I1258
I-802
I177
I105
tp587
Rp588
sg62
I11889
sg63
(dp589
sg65
S'switch-left-f.png'
p590
sg67
I-1
sg68
I3609425
sg69
g1
(g8
g3
Ntp591
Rp592
(lp593
F1346.9499681253808
aF-750.458192011849
absbag1
(g235
g3
Ntp594
Rp595
(dp596
g7
g1
(g8
g3
Ntp597
Rp598
(lp599
F-1.0
aF1.6653345369377348e-16
absg12
F0.19660345168853363
sS'switched'
p600
I00
sg13
I0
sg14
I0
sg15
F227.9116882454314
sg16
I-1
sg59
F0.7853981633974483
sg18
I0
sg19
I00
sg20
g21
(I621
I-799
I177
I105
tp601
Rp602
sS'touches'
p603
I11773
sg24
(dp604
sg26
S'switch-left-f.png'
p605
sS'swap'
p606
I-1
sS'prior_ticks'
p607
I3612961
sg28
g1
(g8
g3
Ntp608
Rp609
(lp610
F709.2394648977896
aF-747.7161085854485
absbag1
(g73
g3
Ntp611
Rp612
(dp613
g190
g1
(g8
g3
Ntp614
Rp615
(lp616
F-0.9999999999999999
aF-7.216449660063518e-16
absg198
(dp617
sg13
I0
sg194
I0
sg200
g468
sg201
g1
(g8
g3
Ntp618
Rp619
(lp620
F1707.8660572342915
aF-779.4988750579105
absg195
I0
sg19
I00
sg20
g21
(I1595
I-808
I224
I59
tp621
Rp622
sbag1
(g73
g3
Ntp623
Rp624
(dp625
g190
g1
(g8
g3
Ntp626
Rp627
(lp628
F-0.3826834323650889
aF-0.9238795325112871
absg198
(dp629
sg13
I0
sg194
I0
sg200
g468
sg201
g1
(g8
g3
Ntp630
Rp631
(lp632
F1963.2962593214802
aF-60.95946622007018
absg195
I0
sg19
I00
sg20
g21
(I1893
I-174
I140
I229
tp633
Rp634
sbag1
(g2
g3
Ntp635
Rp636
(dp637
g77
g1
(g8
g3
Ntp638
Rp639
(lp640
F0.38268343236508917
aF0.923879532511287
absg12
F0.19660345168853363
sg13
I0
sg83
I0
sg15
F227.9116882454314
sg16
I-1
sg17
F0.7853981633974483
sg18
I0
sg19
I00
sg20
g21
(I1984
I12
I164
I203
tp641
Rp642
sg81
(dp643
sg84
g27
sg86
g1
(g8
g3
Ntp644
Rp645
(lp646
F2066.8543801870846
aF113.1649917821493
absbag1
(g49
g3
Ntp647
Rp648
(dp649
S'direction'
p650
g1
(g8
g3
Ntp651
Rp652
(lp653
F-0.7071067811865477
aF0.7071067811865475
absg12
F0.19660345168853363
sS'switched'
p654
I00
sg13
I0
sS'layer'
p655
I0
sg15
F227.9116882454314
sg16
I1
sg59
F0.7853981633974483
sg18
I0
sg19
I00
sg20
g21
(I1294
I-336
I199
I199
tp656
Rp657
sS'touches'
p658
I5697
sS'_Sprite__g'
p659
(dp660
sS'filename'
p661
S'switch-right-f.png'
p662
sS'swap'
p663
I1
sS'prior_ticks'
p664
I3737
sS'position'
p665
g1
(g8
g3
Ntp666
Rp667
(lp668
F1393.4641220954175
aF-237.58470531832
absbag1
(g2
g3
Ntp669
Rp670
(dp671
g171
g1
(g8
g3
Ntp672
Rp673
(lp674
F3.885780586188048e-16
aF-1.0
absg12
F0.19660345168853363
sg13
I0
sg175
I0
sg15
F227.9116882454314
sg16
I-1
sg176
F0.7853981633974483
sg177
I0
sg19
I00
sg20
g21
(I-36
I-67
I105
I177
tp675
Rp676
sg180
(dp677
sg182
g27
sg183
g1
(g8
g3
Ntp678
Rp679
(lp680
F15.760976614456943
aF20.920864018242867
absbag1
(g235
g3
Ntp681
Rp682
(dp683
S'direction'
p684
g1
(g8
g3
Ntp685
Rp686
(lp687
F1.0
aF0.0
absg12
F0.19660345168853363
sS'switched'
p688
I01
sg13
I0
sS'layer'
p689
I0
sg15
F227.9116882454314
sg16
I-1
sg59
F0.7853981633974483
sg177
I0
sg19
I00
sg20
g21
(I-179
I256
I177
I105
tp690
Rp691
sS'touches'
p692
I2675
sS'_Sprite__g'
p693
(dp694
sS'filename'
p695
S'switch-left-f.png'
p696
sS'swap'
p697
I-1
sS'prior_ticks'
p698
I3638107
sS'position'
p699
g1
(g8
g3
Ntp700
Rp701
(lp702
F-91.57701999592169
aF308.2127520191527
absbag1
(g2
g3
Ntp703
Rp704
(dp705
g171
g1
(g8
g3
Ntp706
Rp707
(lp708
F0.7071067811865478
aF-0.7071067811865472
absg12
F0.19660345168853363
sg13
I0
sg175
I0
sg15
F227.9116882454314
sg16
I-1
sg176
F0.7853981633974483
sg177
I0
sg19
I00
sg20
g21
(I-78
I86
I199
I199
tp709
Rp710
sg180
(dp711
sg182
g27
sg183
g1
(g8
g3
Ntp712
Rp713
(lp714
F20.944771650341835
aF185.40607573804712
absbag1
(g2
g3
Ntp715
Rp716
(dp717
S'direction'
p718
g1
(g8
g3
Ntp719
Rp720
(lp721
F1.0
aF5.551115123125783e-16
absg12
F0.19660345168853363
sg13
I0
sS'layer'
p722
I0
sg15
F227.9116882454314
sg16
I-1
sg176
F0.7853981633974483
sS'speed'
p723
I0
sg19
I00
sg20
g21
(I-15
I256
I177
I105
tp724
Rp725
sS'_Sprite__g'
p726
(dp727
sS'filename'
p728
g27
sS'position'
p729
g1
(g8
g3
Ntp730
Rp731
(lp732
F72.14798000407832
aF308.21275201915273
absbag1
(g49
g3
Ntp733
Rp734
(dp735
g53
g1
(g8
g3
Ntp736
Rp737
(lp738
F0.7071067811865469
aF0.7071067811865475
absg12
F0.19660345168853363
sg57
I00
sg13
I0
sg58
I0
sg15
F227.9116882454314
sg16
I1
sg59
F0.7853981633974483
sg18
I0
sg19
I00
sg20
g21
(I85
I-62
I199
I199
tp739
Rp740
sg62
I525
sg63
(dp741
sg65
g66
sg67
I1
sg68
I3494379
sg69
g1
(g8
g3
Ntp742
Rp743
(lp744
F184.79109199390163
aF36.268223345410306
absbag1
(g2
g3
Ntp745
Rp746
(dp747
S'direction'
p748
g1
(g8
g3
Ntp749
Rp750
(lp751
F-0.7071067811865472
aF-0.7071067811865477
absg12
F0.19660345168853363
sg13
I0
sS'layer'
p752
I0
sg15
F227.9116882454314
sg16
I-1
sg176
F0.7853981633974483
sS'speed'
p753
I0
sg19
I00
sg20
g21
(I-234
I-385
I199
I199
tp754
Rp755
sS'_Sprite__g'
p756
(dp757
sS'filename'
p758
g27
sS'position'
p759
g1
(g8
g3
Ntp760
Rp761
(lp762
F-135.0630866569274
aF-286.2972060088309
absbag1
(g73
g3
Ntp763
Rp764
(dp765
g494
g1
(g8
g3
Ntp766
Rp767
(lp768
F0.7071067811865472
aF0.7071067811865478
absg501
(dp769
sg13
I0
sg498
I0
sg503
S'straight-half-f.png'
p770
sg504
g1
(g8
g3
Ntp771
Rp772
(lp773
F-12.351292863311874
aF-204.6551400395342
absg18
I0
sg19
I00
sg20
g21
(I-72
I-264
I121
I121
tp774
Rp775
sbag1
(g73
g3
Ntp776
Rp777
(dp778
g650
g1
(g8
g3
Ntp779
Rp780
(lp781
F-0.7071067811865479
aF0.7071067811865469
absg659
(dp782
sg13
I0
sg655
I0
sg661
g468
sg665
g1
(g8
g3
Ntp783
Rp784
(lp785
F-484.32036558649935
aF-513.3933598068213
absg18
I0
sg19
I00
sg20
g21
(I-584
I-613
I200
I200
tp786
Rp787
sbag1
(g73
g3
Ntp788
Rp789
(dp790
g494
g1
(g8
g3
Ntp791
Rp792
(lp793
F0.7071067811865479
aF-0.7071067811865469
absg501
(dp794
sg13
I0
sg498
I0
sg503
g770
sg504
g1
(g8
g3
Ntp795
Rp796
(lp797
F-406.8194177191511
aF-205.04719924494455
absg18
I0
sg19
I00
sg20
g21
(I-466
I-265
I121
I121
tp798
Rp799
sbag1
(g49
g3
Ntp800
Rp801
(dp802
g77
g1
(g8
g3
Ntp803
Rp804
(lp805
F0.7071067811865475
aF-0.7071067811865469
absg12
F0.19660345168853363
sS'switched'
p806
I00
sg13
I0
sg83
I0
sg15
F227.9116882454314
sg16
I1
sg59
F0.7853981633974483
sg18
I0
sg19
I00
sg20
g21
(I-386
I-385
I199
I199
tp807
Rp808
sS'touches'
p809
I557
sg81
(dp810
sg84
S'switch-right-f.png'
p811
sS'swap'
p812
I1
sS'prior_ticks'
p813
I3497847
sg86
g1
(g8
g3
Ntp814
Rp815
(lp816
F-287.0335100965359
aF-286.297206008831
absbag1
(g73
g3
Ntp817
Rp818
(dp819
g77
g1
(g8
g3
Ntp820
Rp821
(lp822
F0.7071067811865477
aF-0.7071067811865472
absg81
(dp823
sg13
I0
sg83
I0
sg84
g85
sg86
g1
(g8
g3
Ntp824
Rp825
(lp826
F-175.18030690104405
aF-439.2201370286417
absg18
I0
sg19
I00
sg20
g21
(I-275
I-539
I200
I200
tp827
Rp828
sbag1
(g49
g3
Ntp829
Rp830
(dp831
g494
g1
(g8
g3
Ntp832
Rp833
(lp834
F-1.1102230246251565e-16
aF-1.0
absg12
F0.19660345168853363
sS'switched'
p835
I00
sg13
I0
sg498
I0
sg15
F227.9116882454314
sg16
I1
sg59
F0.7853981633974483
sg18
I0
sg19
I00
sg20
g21
(I-651
I-67
I105
I177
tp836
Rp837
sS'touches'
p838
I1268
sg501
(dp839
sg503
S'switch-right-f.png'
p840
sS'swap'
p841
I1
sS'prior_ticks'
p842
I3644195
sg504
g1
(g8
g3
Ntp843
Rp844
(lp845
F-599.0487464023303
aF20.920864018242682
absbag1
(g73
g3
Ntp846
Rp847
(dp848
g53
g1
(g8
g3
Ntp849
Rp850
(lp851
F-7.216449660063518e-16
aF0.9999999999999999
absg63
(dp852
sg13
I0
sg58
I0
sg65
g468
sg69
g1
(g8
g3
Ntp853
Rp854
(lp855
F-628.633180901599
aF-163.88249295777564
absg18
I0
sg19
I00
sg20
g21
(I-657
I-275
I59
I224
tp856
Rp857
sbag1
(g2
g3
Ntp858
Rp859
(dp860
g53
g1
(g8
g3
Ntp861
Rp862
(lp863
F0.9999999999999997
aF4.440892098500626e-16
absg12
F0.19660345168853363
sg13
I0
sg58
I0
sg15
F227.9116882454314
sg16
I-1
sg176
F0.7853981633974483
sg18
I0
sg19
I00
sg20
g21
(I1003
I1168
I177
I105
tp864
Rp865
sg63
(dp866
sg65
g27
sg69
g1
(g8
g3
Ntp867
Rp868
(lp869
F1091.9017306042695
aF1220.918420758315
absbag1
(g73
g3
Ntp870
Rp871
(dp872
g270
g1
(g8
g3
Ntp873
Rp874
(lp875
F-0.9238795325112871
aF0.3826834323650889
absg284
(dp876
sg13
I0
sg276
I0
sg290
g468
sg286
g1
(g8
g3
Ntp877
Rp878
(lp879
F1.0
aF7.2164496600635185e-16
absg293
g1
(g8
g3
Ntp880
Rp881
(lp882
F1900.5437929306845
aF312.4479168548481
absg249
I0
sg19
I00
sg280
g21
(I1786
I242
I229
I140
tp883
Rp884
sbag1
(g2
g3
Ntp885
Rp886
(dp887
g329
g1
(g8
g3
Ntp888
Rp889
(lp890
F0.9999999999999998
aF-8.326672684688674e-16
absg417
F0.19877594239892932
sg339
g1
(g8
g3
Ntp891
Rp892
(lp893
F-0.3826834323650905
aF-0.9238795325112864
absg335
I0
sg336
I0
sg419
F228.18158450703123
sg420
I-1
sg421
F0.39269908169872414
sg19
I00
sg347
g21
(I1711
I334
I96
I61
tp894
Rp895
sg333
(dp896
sg337
g320
sg343
g1
(g8
g3
Ntp897
Rp898
(lp899
F1759.9900130829312
aF364.7240341707225
absbag1
(g73
g3
Ntp900
Rp901
(dp902
g190
g1
(g8
g3
Ntp903
Rp904
(lp905
F1.0
aF7.2164496600635185e-16
absg198
(dp906
sg13
I0
sg194
I0
sg200
g468
sg201
g1
(g8
g3
Ntp907
Rp908
(lp909
F1601.0989239740204
aF372.0112046387095
absg195
I0
sg19
I00
sg20
g21
(I1489
I343
I224
I59
tp910
Rp911
sbag1
(g2
g3
Ntp912
Rp913
(dp914
S'direction'
p915
g1
(g8
g3
Ntp916
Rp917
(lp918
F-0.9999999999999999
aF1.1102230246251565e-16
absS'frac'
p919
F0.19660345168853363
sS'prev_direction'
p920
g1
(g8
g3
Ntp921
Rp922
(lp923
F-0.38268343236508967
aF0.9238795325112867
absg13
I0
sS'layer'
p924
I0
sS'radius'
p925
F227.9116882454314
sS'mirror'
p926
I-1
sS'theta'
p927
F0.7853981633974483
sg249
I0
sg19
I00
sS'rect'
p928
g21
(I1312
I349
I177
I105
tp929
Rp930
sS'_Sprite__g'
p931
(dp932
sS'filename'
p933
g27
sS'position'
p934
g1
(g8
g3
Ntp935
Rp936
(lp937
F1400.5989239740204
aF401.0518876847712
absbag1
(g2
g3
Ntp938
Rp939
(dp940
S'direction'
p941
g1
(g8
g3
Ntp942
Rp943
(lp944
F-0.7071067811865475
aF0.7071067811865475
absS'frac'
p945
F0.19660345168853363
sS'prev_direction'
p946
g1
(g8
g3
Ntp947
Rp948
(lp949
F0.0
aF1.0
absg13
I0
sS'layer'
p950
I0
sS'radius'
p951
F227.9116882454314
sS'mirror'
p952
I-1
sS'theta'
p953
F0.7853981633974483
sg249
I0
sg19
I00
sS'rect'
p954
g21
(I1188
I422
I199
I199
tp955
Rp956
sS'_Sprite__g'
p957
(dp958
sS'filename'
p959
g27
sS'position'
p960
g1
(g8
g3
Ntp961
Rp962
(lp963
F1287.9558119841972
aF521.0259929189052
absbag1
(g2
g3
Ntp964
Rp965
(dp966
g220
g1
(g8
g3
Ntp967
Rp968
(lp969
F0.9238795325112868
aF-0.3826834323650891
absg12
F0.19660345168853363
sg13
I0
sg224
I0
sg15
F227.9116882454314
sg16
I-1
sg59
F0.7853981633974483
sg225
I0
sg19
I00
sg20
g21
(I2494
I482
I203
I164
tp970
Rp971
sg228
(dp972
sg230
g27
sg231
g1
(g8
g3
Ntp973
Rp974
(lp975
F2595.154982492097
aF564.4010790754268
absbag1
(g73
g3
Ntp976
Rp977
(dp978
g171
g1
(g8
g3
Ntp979
Rp980
(lp981
F-0.9999999999999999
aF-7.216449660063518e-16
absg180
(dp982
sg13
I0
sg175
I0
sg182
S'straight-f.png'
p983
sg183
g1
(g8
g3
Ntp984
Rp985
(lp986
F-292.19834033948126
aF-115.5791359817572
absg177
I0
sg19
I00
sg20
g21
(I-404
I-144
I224
I59
tp987
Rp988
sbag1
(g49
g3
Ntp989
Rp990
(dp991
g684
g1
(g8
g3
Ntp992
Rp993
(lp994
F1.0
aF0.0
absg12
F0.19660345168853363
sg688
I01
sg13
I0
sg689
I0
sg15
F227.9116882454314
sg16
I1
sg59
F0.7853981633974483
sg177
I0
sg19
I00
sg20
g21
(I-179
I-138
I177
I105
tp995
Rp996
sg692
I2122
sg693
(dp997
sg695
S'switch-right-f.png'
p998
sg697
I1
sg698
I3641037
sg699
g1
(g8
g3
Ntp999
Rp1000
(lp1001
F-91.69834033948126
aF-86.53845293569537
absbag1
(g2
g3
Ntp1002
Rp1003
(dp1004
g718
g1
(g8
g3
Ntp1005
Rp1006
(lp1007
F0.707106781186547
aF0.7071067811865479
absg12
F0.19660345168853363
sg13
I0
sg722
I0
sg15
F227.9116882454314
sg16
I-1
sg176
F0.7853981633974483
sg723
I0
sg19
I00
sg20
g21
(I242
I11
I199
I199
tp1008
Rp1009
sg726
(dp1010
sg728
g27
sg729
g1
(g8
g3
Ntp1011
Rp1012
(lp1013
F341.63187756798794
aF110.96955327085888
absbag1
(g73
g3
Ntp1014
Rp1015
(dp1016
g77
g1
(g8
g3
Ntp1017
Rp1018
(lp1019
F0.7071067811865478
aF-0.7071067811865474
absg81
(dp1020
sg13
I0
sg83
I0
sg84
g85
sg86
g1
(g8
g3
Ntp1021
Rp1022
(lp1023
F-17.572506326078084
aF-596.8279376036076
absg18
I0
sg19
I00
sg20
g21
(I-117
I-696
I200
I200
tp1024
Rp1025
sbag1
(g2
g3
Ntp1026
Rp1027
(dp1028
g650
g1
(g8
g3
Ntp1029
Rp1030
(lp1031
F-0.7071067811865476
aF0.7071067811865474
absg12
F0.19660345168853363
sg13
I0
sg655
I0
sg15
F227.9116882454314
sg16
I-1
sg176
F0.7853981633974483
sg18
I0
sg19
I00
sg20
g21
(I-703
I-450
I199
I199
tp1032
Rp1033
sg659
(dp1034
sg661
g27
sg665
g1
(g8
g3
Ntp1035
Rp1036
(lp1037
F-604.776292891422
aF-351.86770467757987
absbag1
(g73
g3
Ntp1038
Rp1039
(dp1040
g329
g1
(g8
g3
Ntp1041
Rp1042
(lp1043
F0.7071067811865477
aF-0.7071067811865472
absg333
(dp1044
sg335
I0
sg336
I0
sg337
g770
sg339
g1
(g8
g3
Ntp1045
Rp1046
(lp1047
F-0.7071067811865474
aF-0.7071067811865477
absg343
g1
(g8
g3
Ntp1048
Rp1049
(lp1050
F100.43731450244121
aF-714.8377584321267
absg19
I00
sg347
g21
(I40
I-774
I121
I121
tp1051
Rp1052
sbag1
(g2
g3
Ntp1053
Rp1054
(dp1055
g53
g1
(g8
g3
Ntp1056
Rp1057
(lp1058
F0.7071067811865476
aF-0.707106781186547
absg12
F0.19660345168853363
sg13
I0
sg58
I0
sg15
F227.9116882454314
sg16
I-1
sg176
F0.7853981633974483
sg18
I0
sg19
I00
sg20
g21
(I707
I468
I199
I199
tp1059
Rp1060
sg63
(dp1061
sg65
g27
sg69
g1
(g8
g3
Ntp1062
Rp1063
(lp1064
F806.7657634887794
aF567.3195618801724
absbag1
(g73
g3
Ntp1065
Rp1066
(dp1067
g494
g1
(g8
g3
Ntp1068
Rp1069
(lp1070
F-0.7071067811865472
aF-0.7071067811865478
absg501
(dp1071
sg13
I0
sg498
I0
sg503
g770
sg504
g1
(g8
g3
Ntp1072
Rp1073
(lp1074
F-407.0901565810019
aF426.3294391229913
absg18
I0
sg19
I00
sg20
g21
(I-467
I366
I121
I121
tp1075
Rp1076
sbag1
(g73
g3
Ntp1077
Rp1078
(dp1079
g77
g1
(g8
g3
Ntp1080
Rp1081
(lp1082
F0.7071067811865469
aF0.707106781186548
absg81
(dp1083
sg13
I0
sg83
I0
sg84
g85
sg86
g1
(g8
g3
Ntp1084
Rp1085
(lp1086
F-176.44986552081207
aF657.4997042818195
absg18
I0
sg19
I00
sg20
g21
(I-276
I557
I200
I200
tp1087
Rp1088
sbag1
(g73
g3
Ntp1089
Rp1090
(dp1091
g77
g1
(g8
g3
Ntp1092
Rp1093
(lp1094
F-0.7071067811865468
aF-0.7071067811865481
absg81
(dp1095
sg13
I0
sg83
I0
sg84
g85
sg86
g1
(g8
g3
Ntp1096
Rp1097
(lp1098
F-19.626183356667035
aF814.3233864459648
absg18
I0
sg19
I00
sg20
g21
(I-119
I714
I200
I200
tp1099
Rp1100
sbag1
(g73
g3
Ntp1101
Rp1102
(dp1103
g77
g1
(g8
g3
Ntp1104
Rp1105
(lp1106
F0.9999999999999999
aF7.216449660063518e-16
absg81
(dp1107
sg13
I0
sg83
I0
sg84
g85
sg86
g1
(g8
g3
Ntp1108
Rp1109
(lp1110
F126.49793804132877
aF531.8283931024652
absg18
I0
sg19
I00
sg20
g21
(I14
I502
I224
I59
tp1111
Rp1112
sbag1
(g73
g3
Ntp1113
Rp1114
(dp1115
S'direction'
p1116
g1
(g8
g3
Ntp1117
Rp1118
(lp1119
F0.9999999999999998
aF3.885780586188048e-16
absS'_Sprite__g'
p1120
(dp1121
sS'target_speed'
p1122
I0
sS'layer'
p1123
I0
sS'filename'
p1124
g770
sS'prev_direction'
p1125
g1
(g8
g3
Ntp1126
Rp1127
(lp1128
F-0.7071067811865474
aF-0.7071067811865477
absS'position'
p1129
g1
(g8
g3
Ntp1130
Rp1131
(lp1132
F473.61708928779217
aF134.82644128103576
absg19
I00
sS'rect'
p1133
g21
(I417
I104
I112
I60
tp1134
Rp1135
sbag1
(g73
g3
Ntp1136
Rp1137
(dp1138
S'direction'
p1139
g1
(g8
g3
Ntp1140
Rp1141
(lp1142
F1.0
aF9.43689570931383e-16
absS'_Sprite__g'
p1143
(dp1144
sg13
I0
sS'layer'
p1145
I0
sS'filename'
p1146
g468
sS'position'
p1147
g1
(g8
g3
Ntp1148
Rp1149
(lp1150
F867.6726954927595
aF990.9966303282259
absg225
I0
sg19
I00
sg20
g21
(I755
I961
I224
I59
tp1151
Rp1152
sbag1
(g73
g3
Ntp1153
Rp1154
(dp1155
g270
g1
(g8
g3
Ntp1156
Rp1157
(lp1158
F1.0
aF7.2164496600635185e-16
absg284
(dp1159
sg13
I0
sg276
I0
sg290
g468
sg286
g1
(g8
g3
Ntp1160
Rp1161
(lp1162
F1.0
aF7.2164496600635185e-16
absg293
g1
(g8
g3
Ntp1163
Rp1164
(lp1165
F644.7816063838486
aF990.9966303282257
absg249
I0
sg19
I00
sg280
g21
(I532
I961
I224
I59
tp1166
Rp1167
sbag1
(g73
g3
Ntp1168
Rp1169
(dp1170
g190
g1
(g8
g3
Ntp1171
Rp1172
(lp1173
F1.0
aF7.2164496600635185e-16
absg198
(dp1174
sg13
I0
sg194
I0
sg200
g468
sg201
g1
(g8
g3
Ntp1175
Rp1176
(lp1177
F2222.2988146402367
aF990.8800258489076
absg195
I0
sg19
I00
sg20
g21
(I2110
I961
I224
I59
tp1178
Rp1179
sbag1
(g73
g3
Ntp1180
Rp1181
(dp1182
g190
g1
(g8
g3
Ntp1183
Rp1184
(lp1185
F1.0
aF7.2164496600635185e-16
absg198
(dp1186
sg13
I0
sg194
I0
sg200
g468
sg201
g1
(g8
g3
Ntp1187
Rp1188
(lp1189
F1999.4077255313257
aF990.8800258489074
absg195
I0
sg19
I00
sg20
g21
(I1887
I961
I224
I59
tp1190
Rp1191
sbag1
(g73
g3
Ntp1192
Rp1193
(dp1194
g190
g1
(g8
g3
Ntp1195
Rp1196
(lp1197
F1.0
aF7.2164496600635185e-16
absg198
(dp1198
sg13
I0
sg194
I0
sg200
g468
sg201
g1
(g8
g3
Ntp1199
Rp1200
(lp1201
F1776.5166364224149
aF990.8800258489072
absg195
I0
sg19
I00
sg20
g21
(I1664
I961
I224
I59
tp1202
Rp1203
sbag1
(g73
g3
Ntp1204
Rp1205
(dp1206
g190
g1
(g8
g3
Ntp1207
Rp1208
(lp1209
F-8.881784197001252e-16
aF1.0
absg198
(dp1210
sg13
I0
sg194
I0
sg200
g468
sg201
g1
(g8
g3
Ntp1211
Rp1212
(lp1213
F3285.1300905725393
aF566.7707528852411
absg195
I0
sg19
I00
sg20
g21
(I3256
I454
I59
I224
tp1214
Rp1215
sbag1
(g73
g3
Ntp1216
Rp1217
(dp1218
g300
g1
(g8
g3
Ntp1219
Rp1220
(lp1221
F-8.881784197001252e-16
aF1.0
absg317
(dp1222
sg13
I0
sg309
I0
sg319
g468
sg305
g1
(g8
g3
Ntp1223
Rp1224
(lp1225
F1.0
aF7.2164496600635185e-16
absg321
g1
(g8
g3
Ntp1226
Rp1227
(lp1228
F3285.1300905725393
aF343.87966377633023
absg313
I0
sg19
I00
sg314
g21
(I3256
I231
I59
I224
tp1229
Rp1230
sbag1
(g73
g3
Ntp1231
Rp1232
(dp1233
S'direction'
p1234
g1
(g8
g3
Ntp1235
Rp1236
(lp1237
F0.9238795325112864
aF0.38268343236509067
absS'_Sprite__g'
p1238
(dp1239
sS'target_speed'
p1240
I0
sS'layer'
p1241
I0
sS'filename'
p1242
g468
sS'prev_direction'
p1243
g1
(g8
g3
Ntp1244
Rp1245
(lp1246
F0.9238795325112864
aF0.38268343236509067
absS'position'
p1247
g1
(g8
g3
Ntp1248
Rp1249
(lp1250
F2658.0966812685233
aF-563.3073169481754
absg19
I00
sS'rect'
p1251
g21
(I2544
I-633
I229
I140
tp1252
Rp1253
sbag1
(g73
g3
Ntp1254
Rp1255
(dp1256
g53
g1
(g8
g3
Ntp1257
Rp1258
(lp1259
F-1.0
aF-6.661338147750939e-16
absg63
(dp1260
sg13
I0
sg58
I0
sg65
g468
sg69
g1
(g8
g3
Ntp1261
Rp1262
(lp1263
F1024.9667711943498
aF-209.67300174885017
absg18
I0
sg19
I00
sg20
g21
(I912
I-238
I224
I59
tp1264
Rp1265
sbag1
(g2
g3
Ntp1266
Rp1267
(dp1268
g718
g1
(g8
g3
Ntp1269
Rp1270
(lp1271
F0.7071067811865479
aF-0.7071067811865472
absg12
F0.19660345168853363
sg13
I0
sg722
I0
sg15
F227.9116882454314
sg16
I-1
sg176
F0.7853981633974483
sg723
I0
sg19
I00
sg20
g21
(I85
I89
I199
I199
tp1272
Rp1273
sg726
(dp1274
sg728
g27
sg729
g1
(g8
g3
Ntp1275
Rp1276
(lp1277
F184.79109199390155
aF188.2386467850188
absbag1
(g73
g3
Ntp1278
Rp1279
(dp1280
g190
g1
(g8
g3
Ntp1281
Rp1282
(lp1283
F1.0
aF7.2164496600635185e-16
absg198
(dp1284
sg13
I0
sg194
I0
sg200
g468
sg201
g1
(g8
g3
Ntp1285
Rp1286
(lp1287
F2608.9149037491475
aF990.8800258489078
absg195
I0
sg19
I00
sg20
g21
(I2496
I961
I224
I59
tp1288
Rp1289
sbag1
(g73
g3
Ntp1290
Rp1291
(dp1292
S'direction'
p1293
g1
(g8
g3
Ntp1294
Rp1295
(lp1296
F1.0
aF7.2164496600635185e-16
absS'_Sprite__g'
p1297
(dp1298
sg1122
I0
sS'layer'
p1299
I0
sS'filename'
p1300
g468
sS'prev_direction'
p1301
g1
(g8
g3
Ntp1302
Rp1303
(lp1304
F1.0
aF7.2164496600635185e-16
absS'position'
p1305
g1
(g8
g3
Ntp1306
Rp1307
(lp1308
F2832.9149037491475
aF990.880025848908
absg19
I00
sS'rect'
p1309
g21
(I2720
I961
I224
I59
tp1310
Rp1311
sbag1
(g474
g3
Ntp1312
Rp1313
(dp1314
g329
g1
(g8
g3
Ntp1315
Rp1316
(lp1317
F-0.7071067811865474
aF-0.7071067811865477
absg333
(dp1318
sg335
I0
sg336
I0
sg337
g482
sg339
g1
(g8
g3
Ntp1319
Rp1320
(lp1321
F-1.0
aF-1.6653345369377348e-16
absg343
g1
(g8
g3
Ntp1322
Rp1323
(lp1324
F-79.76980000000034
aF96.03306666666684
absg19
I00
sg347
g21
(I-162
I13
I166
I166
tp1325
Rp1326
sbag1
(g474
g3
Ntp1327
Rp1328
(dp1329
g329
g1
(g8
g3
Ntp1330
Rp1331
(lp1332
F-0.3826834323650895
aF-0.9238795325112868
absg333
(dp1333
sg335
I0
sg336
I0
sg337
g482
sg339
g1
(g8
g3
Ntp1334
Rp1335
(lp1336
F-1.0
aF-1.6653345369377348e-16
absg343
g1
(g8
g3
Ntp1337
Rp1338
(lp1339
F-179.32860000000042
aF201.70460000000028
absg19
I00
sg347
g21
(I-252
I121
I146
I160
tp1340
Rp1341
sbag1
(g73
g3
Ntp1342
Rp1343
(dp1344
S'direction'
p1345
g1
(g8
g3
Ntp1346
Rp1347
(lp1348
F0.7071067811865477
aF-0.7071067811865472
absS'_Sprite__g'
p1349
(dp1350
sg13
I0
sS'layer'
p1351
I0
sS'filename'
p1352
g770
sS'position'
p1353
g1
(g8
g3
Ntp1354
Rp1355
(lp1356
F3180.0231957984756
aF875.9667883021616
absg18
I0
sg19
I00
sg20
g21
(I3120
I815
I121
I121
tp1357
Rp1358
sbag1
(g49
g3
Ntp1359
Rp1360
(dp1361
S'direction'
p1362
g1
(g8
g3
Ntp1363
Rp1364
(lp1365
F-0.7071067811865477
aF0.7071067811865475
absS'frac'
p1366
F0.19660345168853363
sS'switched'
p1367
I00
sg13
I0
sS'layer'
p1368
I0
sS'radius'
p1369
F227.9116882454314
sS'mirror'
p1370
I1
sS'theta'
p1371
F0.7853981633974483
sS'speed'
p1372
I0
sg19
I00
sS'rect'
p1373
g21
(I1146
I-188
I199
I199
tp1374
Rp1375
sS'touches'
p1376
I248
sS'_Sprite__g'
p1377
(dp1378
sS'prev_direction'
p1379
g1
(g8
g3
Ntp1380
Rp1381
(lp1382
F-0.7071067811865477
aF0.7071067811865475
absS'filename'
p1383
S'switch-right-f.png'
p1384
sS'prior_ticks'
p1385
I3737
sS'position'
p1386
g1
(g8
g3
Ntp1387
Rp1388
(lp1389
F1245.717149578515
aF-89.26072975594442
absbag1
(g73
g3
Ntp1390
Rp1391
(dp1392
g300
g1
(g8
g3
Ntp1393
Rp1394
(lp1395
F0.9238795325112868
aF-0.38268343236508945
absg317
(dp1396
sg13
I0
sg309
I0
sg319
g85
sg305
g1
(g8
g3
Ntp1397
Rp1398
(lp1399
F0.9238795325112868
aF-0.38268343236508945
absg321
g1
(g8
g3
Ntp1400
Rp1401
(lp1402
F1779.601268220049
aF-137.04842287428806
absg313
I0
sg19
I00
sg314
g21
(I1665
I-207
I229
I140
tp1403
Rp1404
sbag1
(g73
g3
Ntp1405
Rp1406
(dp1407
g77
g1
(g8
g3
Ntp1408
Rp1409
(lp1410
F0.9238795325112861
aF-0.3826834323650891
absg81
(dp1411
sg13
I0
sg83
I0
sg84
g85
sg86
g1
(g8
g3
Ntp1412
Rp1413
(lp1414
F1573.676753013177
aF-51.75169585049709
absg18
I0
sg19
I00
sg20
g21
(I1459
I-121
I229
I140
tp1415
Rp1416
sbag1
(g73
g3
Ntp1417
Rp1418
(dp1419
g1293
g1
(g8
g3
Ntp1420
Rp1421
(lp1422
F0.9238795325112868
aF-0.38268343236508945
absg1297
(dp1423
sg1122
I0
sg1299
I0
sg1300
g85
sg1301
g1
(g8
g3
Ntp1424
Rp1425
(lp1426
F0.9238795325112868
aF-0.38268343236508945
absg1305
g1
(g8
g3
Ntp1427
Rp1428
(lp1429
F1367.7522378063047
aF33.54503117329389
absg19
I00
sg1309
g21
(I1253
I-36
I229
I140
tp1430
Rp1431
sbag1
(g2
g3
Ntp1432
Rp1433
(dp1434
S'direction'
p1435
g1
(g8
g3
Ntp1436
Rp1437
(lp1438
F1.0
aF-2.7755575615628914e-16
absS'frac'
p1439
F0.19877594239892932
sS'prev_direction'
p1440
g1
(g8
g3
Ntp1441
Rp1442
(lp1443
F0.3826834323650895
aF-0.923879532511287
absg13
I0
sS'layer'
p1444
I0
sS'radius'
p1445
F228.18158450703123
sS'mirror'
p1446
I-1
sS'theta'
p1447
F0.39269908169872414
sS'speed'
p1448
I0
sg19
I00
sS'rect'
p1449
g21
(I1178
I56
I96
I61
tp1450
Rp1451
sS'_Sprite__g'
p1452
(dp1453
sS'filename'
p1454
g320
sS'position'
p1455
g1
(g8
g3
Ntp1456
Rp1457
(lp1458
F1226.1739578828954
aF86.24551031515742
absbag1
(g49
g3
Ntp1459
Rp1460
(dp1461
g650
g1
(g8
g3
Ntp1462
Rp1463
(lp1464
F0.7071067811865477
aF-0.7071067811865472
absg12
F0.19660345168853363
sg654
I01
sg13
I0
sg655
I0
sg15
F227.9116882454314
sg16
I1
sg59
F0.7853981633974483
sg18
I0
sg19
I00
sg20
g21
(I1003
I18
I199
I199
tp1465
Rp1466
sg658
I258
sg659
(dp1467
sg661
g662
sg663
I1
sg664
I2473625
sg665
g1
(g8
g3
Ntp1468
Rp1469
(lp1470
F1102.188746163091
aF117.38956879332119
absbag1
(g2
g3
Ntp1471
Rp1472
(dp1473
g53
g1
(g8
g3
Ntp1474
Rp1475
(lp1476
F-0.7071067811865472
aF0.7071067811865468
absg12
F0.19660345168853363
sg13
I0
sg58
I0
sg15
F227.9116882454314
sg16
I-1
sg176
F0.7853981633974483
sg18
I0
sg19
I00
sg20
g21
(I878
I143
I199
I199
tp1477
Rp1478
sg63
(dp1479
sg65
g27
sg69
g1
(g8
g3
Ntp1480
Rp1481
(lp1482
F977.0308458930721
aF242.54746906334006
absbag1
(g73
g3
Ntp1483
Rp1484
(dp1485
g650
g1
(g8
g3
Ntp1486
Rp1487
(lp1488
F-4.440892098500626e-16
aF0.9999999999999993
absg659
(dp1489
sg13
I0
sg655
I0
sg661
g85
sg665
g1
(g8
g3
Ntp1490
Rp1491
(lp1492
F953.1739578828953
aF430.53268078314426
absg18
I0
sg19
I00
sg20
g21
(I924
I318
I59
I224
tp1493
Rp1494
sbag1
(g2
g3
Ntp1495
Rp1496
(dp1497
g650
g1
(g8
g3
Ntp1498
Rp1499
(lp1500
F-4.440892098500626e-16
aF1.0
absg12
F0.19660345168853363
sg13
I0
sg655
I0
sg15
F227.9116882454314
sg16
I-1
sg176
F0.7853981633974483
sg18
I0
sg19
I00
sg20
g21
(I930
I541
I105
I177
tp1501
Rp1502
sg659
(dp1503
sg661
g27
sg665
g1
(g8
g3
Ntp1504
Rp1505
(lp1506
F982.214640928957
aF629.9237698920551
absbag1
(g2
g3
Ntp1507
Rp1508
(dp1509
g329
g1
(g8
g3
Ntp1510
Rp1511
(lp1512
F0.7071067811865475
aF-0.7071067811865471
absg417
F0.19660345168853363
sg339
g1
(g8
g3
Ntp1513
Rp1514
(lp1515
F0.7071067811865471
aF0.7071067811865478
absg335
I0
sg336
I0
sg419
F227.9116882454314
sg420
I-1
sg421
F0.7853981633974483
sg19
I00
sg347
g21
(I1535
I-577
I199
I199
tp1516
Rp1517
sg333
(dp1518
sg337
g27
sg343
g1
(g8
g3
Ntp1519
Rp1520
(lp1521
F1634.393080115204
aF-478.5136633381063
absbag1
(g73
g3
Ntp1522
Rp1523
(dp1524
g53
g1
(g8
g3
Ntp1525
Rp1526
(lp1527
F-0.7071067811865469
aF-0.7071067811865479
absg63
(dp1528
sg13
I0
sg58
I0
sg65
g468
sg69
g1
(g8
g3
Ntp1529
Rp1530
(lp1531
F1097.4867731979946
aF778.934636741101
absg18
I0
sg19
I00
sg20
g21
(I997
I678
I200
I200
tp1532
Rp1533
sbag1
(g73
g3
Ntp1534
Rp1535
(dp1536
g494
g1
(g8
g3
Ntp1537
Rp1538
(lp1539
F0.7071067811865469
aF0.7071067811865479
absg501
(dp1540
sg13
I0
sg498
I0
sg503
g770
sg504
g1
(g8
g3
Ntp1541
Rp1542
(lp1543
F1216.2807124373344
aF897.7285759804411
absg18
I0
sg19
I00
sg20
g21
(I1156
I837
I121
I121
tp1544
Rp1545
sbag1
(g49
g3
Ntp1546
Rp1547
(dp1548
g53
g1
(g8
g3
Ntp1549
Rp1550
(lp1551
F-0.9999999999999997
aF-1.6653345369377348e-16
absg12
F0.19660345168853363
sg57
I00
sg13
I0
sg58
I0
sg15
F227.9116882454314
sg16
I1
sg59
F0.7853981633974483
sg18
I0
sg19
I00
sg20
g21
(I1238
I921
I177
I105
tp1552
Rp1553
sg62
I285
sg63
(dp1554
sg65
g66
sg67
I1
sg68
I3513900
sg69
g1
(g8
g3
Ntp1555
Rp1556
(lp1557
F1326.0856587453438
aF973.7947877084424
absbag1
(g235
g3
Ntp1558
Rp1559
(dp1560
S'direction'
p1561
g1
(g8
g3
Ntp1562
Rp1563
(lp1564
F0.9999999999999998
aF3.885780586188048e-16
absg12
F0.19660345168853363
sS'switched'
p1565
I00
sg13
I0
sS'layer'
p1566
I0
sg15
F227.9116882454314
sg16
I-1
sg59
F0.7853981633974483
sg18
I0
sg19
I00
sg20
g21
(I1407
I921
I177
I105
tp1567
Rp1568
sS'touches'
p1569
I236
sS'_Sprite__g'
p1570
(dp1571
sS'filename'
p1572
S'switch-left-f.png'
p1573
sS'swap'
p1574
I-1
sS'prior_ticks'
p1575
I3514794
sS'position'
p1576
g1
(g8
g3
Ntp1577
Rp1578
(lp1579
F1495.9994147453438
aF973.7947877084424
absbag1
(g235
g3
Ntp1580
Rp1581
(dp1582
g53
g1
(g8
g3
Ntp1583
Rp1584
(lp1585
F-0.9999999999999996
aF-3.885780586188048e-16
absg12
F0.19660345168853363
sg57
I01
sg13
I0
sg58
I0
sg15
F227.9116882454314
sg16
I-1
sg17
F0.7853981633974483
sg18
I0
sg19
I00
sg20
g21
(I1549
I848
I177
I105
tp1586
Rp1587
sg62
I447
sg63
(dp1588
sg65
g590
sg67
I-1
sg68
I3433830
sg69
g1
(g8
g3
Ntp1589
Rp1590
(lp1591
F1637.1974662792902
aF900.0742053345124
absbag1
(g73
g3
Ntp1592
Rp1593
(dp1594
g239
g1
(g8
g3
Ntp1595
Rp1596
(lp1597
F0.9999999999999999
aF7.216449660063518e-16
absg254
(dp1598
sg13
I0
sg245
I0
sg260
g468
sg256
g1
(g8
g3
Ntp1599
Rp1600
(lp1601
F0.707106781186548
aF-0.707106781186547
absg263
g1
(g8
g3
Ntp1602
Rp1603
(lp1604
F1837.6974662792902
aF871.0335222884509
absg249
I0
sg19
I00
sg250
g21
(I1725
I842
I224
I59
tp1605
Rp1606
sbag1
(g235
g3
Ntp1607
Rp1608
(dp1609
g300
g1
(g8
g3
Ntp1610
Rp1611
(lp1612
F-0.9238795325112865
aF-0.3826834323650904
absg304
F0.19660345168853363
sS'switched'
p1613
I01
sg13
I0
sg309
I0
sg310
F227.9116882454314
sg311
I-1
sg312
F0.7853981633974483
sg313
I0
sg19
I00
sg314
g21
(I2085
I137
I203
I164
tp1614
Rp1615
sS'touches'
p1616
I79
sg317
(dp1617
sg305
g1
(g8
g3
Ntp1618
Rp1619
(lp1620
F1.0
aF3.885780586188049e-16
absg319
S'switch-left-f.png'
p1621
sS'prior_ticks'
p1622
I80222
sg321
g1
(g8
g3
Ntp1623
Rp1624
(lp1625
F2186.3113758461323
aF219.90161783015625
absbag1
(g49
g3
Ntp1626
Rp1627
(dp1628
S'direction'
p1629
g1
(g8
g3
Ntp1630
Rp1631
(lp1632
F0.9238795325112864
aF0.3826834323650904
absS'frac'
p1633
F0.19660345168853363
sS'switched'
p1634
I01
sS'target_speed'
p1635
I0
sS'layer'
p1636
I0
sS'radius'
p1637
F227.9116882454314
sS'mirror'
p1638
I1
sS'theta'
p1639
F0.7853981633974483
sg19
I00
sS'rect'
p1640
g21
(I2730
I-542
I203
I164
tp1641
Rp1642
sS'touches'
p1643
I54
sS'_Sprite__g'
p1644
(dp1645
sS'prev_direction'
p1646
g1
(g8
g3
Ntp1647
Rp1648
(lp1649
F-0.3826834323650902
aF0.9238795325112866
absS'filename'
p1650
S'switch-right-f.png'
p1651
sS'prior_ticks'
p1652
I3054257
sS'position'
p1653
g1
(g8
g3
Ntp1654
Rp1655
(lp1656
F2831.1966391950864
aF-460.17355790855976
absbag1
(g2
g3
Ntp1657
Rp1658
(dp1659
g190
g1
(g8
g3
Ntp1660
Rp1661
(lp1662
F4.440892098500626e-16
aF-1.0
absg12
F0.19660345168853363
sg13
I0
sg194
I0
sg15
F227.9116882454314
sg16
I-1
sg176
F0.7853981633974483
sg195
I0
sg19
I00
sg20
g21
(I3078
I-208
I105
I177
tp1663
Rp1664
sg198
(dp1665
sg200
g27
sg201
g1
(g8
g3
Ntp1666
Rp1667
(lp1668
F3130.7548770354115
aF-120.7692724973817
absbag1
(g235
g3
Ntp1669
Rp1670
(dp1671
S'direction'
p1672
g1
(g8
g3
Ntp1673
Rp1674
(lp1675
F7.216449660063518e-16
aF-1.0
absS'frac'
p1676
F0.19660345168853363
sS'switched'
p1677
I00
sg1635
I0
sS'layer'
p1678
I0
sS'radius'
p1679
F227.9116882454314
sS'mirror'
p1680
I-1
sS'theta'
p1681
F0.7853981633974483
sg19
I00
sS'rect'
p1682
g21
(I3201
I-324
I105
I177
tp1683
Rp1684
sS'touches'
p1685
I61
sS'_Sprite__g'
p1686
(dp1687
sS'prev_direction'
p1688
g1
(g8
g3
Ntp1689
Rp1690
(lp1691
F0.38268343236509045
aF-0.9238795325112865
absS'filename'
p1692
S'switch-left-f.png'
p1693
sS'prior_ticks'
p1694
I3530644
sS'position'
p1695
g1
(g8
g3
Ntp1696
Rp1697
(lp1698
F3253.153637035411
aF-236.72599249738175
absbag1
(g2
g3
Ntp1699
Rp1700
(dp1701
g220
g1
(g8
g3
Ntp1702
Rp1703
(lp1704
F6.661338147750939e-16
aF-0.9999999999999999
absg12
F0.19660345168853363
sg13
I0
sg224
I0
sg15
F227.9116882454314
sg16
I-1
sg59
F0.7853981633974483
sg225
I0
sg19
I00
sg20
g21
(I3201
I-488
I105
I177
tp1705
Rp1706
sg228
(dp1707
sg230
g27
sg231
g1
(g8
g3
Ntp1708
Rp1709
(lp1710
F3253.153637035411
aF-400.4509924973818
absbag1
(g73
g3
Ntp1711
Rp1712
(dp1713
g190
g1
(g8
g3
Ntp1714
Rp1715
(lp1716
F-0.7071067811865468
aF-0.7071067811865481
absg198
(dp1717
sg13
I0
sg194
I0
sg200
g468
sg201
g1
(g8
g3
Ntp1718
Rp1719
(lp1720
F3137.097386355553
aF-550.2459777572484
absg195
I0
sg19
I00
sg20
g21
(I3037
I-650
I200
I200
tp1721
Rp1722
sbag1
(g2
g3
Ntp1723
Rp1724
(dp1725
g650
g1
(g8
g3
Ntp1726
Rp1727
(lp1728
F-0.7071067811865469
aF-0.7071067811865477
absg12
F0.19660345168853363
sg13
I0
sg655
I0
sg15
F227.9116882454314
sg16
I-1
sg176
F0.7853981633974483
sg18
I0
sg19
I00
sg20
g21
(I2876
I-769
I199
I199
tp1729
Rp1730
sg659
(dp1731
sg661
g27
sg665
g1
(g8
g3
Ntp1732
Rp1733
(lp1734
F2975.571731226312
aF-670.7019050621711
absbag1
(g73
g3
Ntp1735
Rp1736
(dp1737
g190
g1
(g8
g3
Ntp1738
Rp1739
(lp1740
F-1.0
aF-9.43689570931383e-16
absg198
(dp1741
sg13
I0
sg194
I0
sg200
g468
sg201
g1
(g8
g3
Ntp1742
Rp1743
(lp1744
F2787.5865195065076
aF-694.5587930723481
absg195
I0
sg19
I00
sg20
g21
(I2675
I-723
I224
I59
tp1745
Rp1746
sbag1
(g73
g3
Ntp1747
Rp1748
(dp1749
g190
g1
(g8
g3
Ntp1750
Rp1751
(lp1752
F-0.9238795325112864
aF-0.38268343236509067
absg198
(dp1753
sg13
I0
sg194
I0
sg200
g468
sg201
g1
(g8
g3
Ntp1754
Rp1755
(lp1756
F3039.823584722354
aF-398.95943173731143
absg195
I0
sg19
I00
sg20
g21
(I2925
I-468
I229
I140
tp1757
Rp1758
sbag1
(g2
g3
Ntp1759
Rp1760
(dp1761
g220
g1
(g8
g3
Ntp1762
Rp1763
(lp1764
F0.7071067811865475
aF0.7071067811865476
absg12
F0.19660345168853363
sg13
I0
sg224
I0
sg15
F227.9116882454314
sg16
I-1
sg59
F0.7853981633974483
sg225
I0
sg19
I00
sg20
g21
(I1309
I746
I199
I199
tp1765
Rp1766
sg228
(dp1767
sg230
g27
sg231
g1
(g8
g3
Ntp1768
Rp1769
(lp1770
F1408.8083769801758
aF845.5630704346979
absbag1
(g2
g3
Ntp1771
Rp1772
(dp1773
g941
g1
(g8
g3
Ntp1774
Rp1775
(lp1776
F0.0
aF1.0
absg945
F0.19660345168853363
sg946
g1
(g8
g3
Ntp1777
Rp1778
(lp1779
F0.7071067811865475
aF0.7071067811865476
absg13
I0
sg950
I0
sg951
F227.9116882454314
sg952
I-1
sg953
F0.7853981633974483
sg249
I0
sg19
I00
sg954
g21
(I1236
I644
I105
I177
tp1780
Rp1781
sg957
(dp1782
sg959
g27
sg960
g1
(g8
g3
Ntp1783
Rp1784
(lp1785
F1288.8342717460418
aF732.9199584448749
absbag1
(g2
g3
Ntp1786
Rp1787
(dp1788
g300
g1
(g8
g3
Ntp1789
Rp1790
(lp1791
F-1.0
aF5.551115123125783e-16
absg304
F0.19877594239892932
sg305
g1
(g8
g3
Ntp1792
Rp1793
(lp1794
F4.440892098500626e-16
aF1.0
absg13
I0
sg309
I0
sg310
F228.18158450703123
sg311
I-1
sg312
F0.39269908169872414
sg313
I0
sg19
I00
sg314
g21
(I2580
I-717
I96
I61
tp1795
Rp1796
sg317
(dp1797
sg319
g320
sg321
g1
(g8
g3
Ntp1798
Rp1799
(lp1800
F2628.6954303975967
aF-687.2716226043611
absbag1
(g73
g3
Ntp1801
Rp1802
(dp1803
g77
g1
(g8
g3
Ntp1804
Rp1805
(lp1806
F-0.7071067811865479
aF0.707106781186547
absg81
(dp1807
sg13
I0
sg83
I0
sg84
g85
sg86
g1
(g8
g3
Ntp1808
Rp1809
(lp1810
F638.8055071252254
aF348.0275248821042
absg18
I0
sg19
I00
sg20
g21
(I538
I248
I200
I200
tp1811
Rp1812
sbag1
(g2
g3
Ntp1813
Rp1814
(dp1815
g171
g1
(g8
g3
Ntp1816
Rp1817
(lp1818
F0.7071067811865474
aF0.7071067811865476
absg12
F0.19660345168853363
sg13
I0
sg175
I0
sg15
F227.9116882454314
sg16
I-1
sg176
F0.7853981633974483
sg177
I0
sg19
I00
sg20
g21
(I77
I865
I199
I199
tp1819
Rp1820
sg180
(dp1821
sg182
g27
sg183
g1
(g8
g3
Ntp1822
Rp1823
(lp1824
F176.56421050562864
aF964.7439423180488
absbag1
(g2
g3
Ntp1825
Rp1826
(dp1827
g300
g1
(g8
g3
Ntp1828
Rp1829
(lp1830
F-0.9238795325112866
aF-0.38268343236508934
absg304
F0.19877594239892932
sg305
g1
(g8
g3
Ntp1831
Rp1832
(lp1833
F1.0
aF-2.7755575615628914e-16
absg13
I0
sg309
I0
sg310
F228.18158450703123
sg311
I-1
sg312
F0.39269908169872414
sg313
I0
sg19
I00
sg314
g21
(I2079
I-817
I112
I93
tp1834
Rp1835
sg317
(dp1836
sg319
g320
sg321
g1
(g8
g3
Ntp1837
Rp1838
(lp1839
F2135.5916910491683
aF-771.8483938279039
absbag1
(g474
g3
Ntp1840
Rp1841
(dp1842
S'direction'
p1843
g1
(g8
g3
Ntp1844
Rp1845
(lp1846
F-4.440892098500626e-16
aF0.9999999999999996
absS'_Sprite__g'
p1847
(dp1848
sg13
I0
sS'layer'
p1849
I0
sS'filename'
p1850
g482
sS'prev_direction'
p1851
g1
(g8
g3
Ntp1852
Rp1853
(lp1854
F-0.7071067811865477
aF0.7071067811865475
absS'position'
p1855
g1
(g8
g3
Ntp1856
Rp1857
(lp1858
F591.1230038881874
aF-240.8769961118126
absg1448
I0
sg19
I00
sS'rect'
p1859
g21
(I539
I-305
I104
I131
tp1860
Rp1861
sbag1
(g474
g3
Ntp1862
Rp1863
(dp1864
S'direction'
p1865
g1
(g8
g3
Ntp1866
Rp1867
(lp1868
F-0.7071067811865468
aF-0.7071067811865474
absS'_Sprite__g'
p1869
(dp1870
sg13
I0
sS'layer'
p1871
I0
sS'filename'
p1872
g482
sS'prev_direction'
p1873
g1
(g8
g3
Ntp1874
Rp1875
(lp1876
F1.0
aF0.0
absS'position'
p1877
g1
(g8
g3
Ntp1878
Rp1879
(lp1880
F707.916
aF31.100000000000044
absS'speed'
p1881
I0
sg19
I00
sg20
g21
(I624
I-51
I166
I166
tp1882
Rp1883
sbag1
(g73
g3
Ntp1884
Rp1885
(dp1886
g270
g1
(g8
g3
Ntp1887
Rp1888
(lp1889
F0.923879532511287
aF-0.38268343236508906
absg284
(dp1890
sg13
I0
sg276
I0
sg290
g468
sg286
g1
(g8
g3
Ntp1891
Rp1892
(lp1893
F1.0
aF7.2164496600635185e-16
absg293
g1
(g8
g3
Ntp1894
Rp1895
(lp1896
F2347.7556222350677
aF702.4912229639702
absg249
I0
sg19
I00
sg280
g21
(I2233
I632
I229
I140
tp1897
Rp1898
sbag1
(g235
g3
Ntp1899
Rp1900
(dp1901
g1234
g1
(g8
g3
Ntp1902
Rp1903
(lp1904
F0.9238795325112866
aF0.3826834323650901
absS'frac'
p1905
F0.19660345168853363
sS'switched'
p1906
I00
sg1240
I0
sg1241
I0
sS'radius'
p1907
F227.9116882454314
sS'mirror'
p1908
I-1
sS'theta'
p1909
F0.7853981633974483
sg19
I00
sg1251
g21
(I2395
I-743
I203
I164
tp1910
Rp1911
sS'touches'
p1912
I245
sg1238
(dp1913
sg1243
g1
(g8
g3
Ntp1914
Rp1915
(lp1916
F1.0
aF3.885780586188049e-16
absg1242
S'switch-left-f.png'
p1917
sS'prior_ticks'
p1918
I3536596
sg1247
g1
(g8
g3
Ntp1919
Rp1920
(lp1921
F2496.236724060391
aF-661.7853152491334
absbag1
(g73
g3
Ntp1922
Rp1923
(dp1924
g329
g1
(g8
g3
Ntp1925
Rp1926
(lp1927
F-0.9238795325112864
aF-0.38268343236509056
absg333
(dp1928
sg335
I0
sg336
I0
sg337
g468
sg339
g1
(g8
g3
Ntp1929
Rp1930
(lp1931
F0.9238795325112865
aF0.38268343236509045
absg343
g1
(g8
g3
Ntp1932
Rp1933
(lp1934
F2378.7651761809393
aF269.7995533429529
absg19
I00
sg347
g21
(I2264
I199
I229
I140
tp1935
Rp1936
sbag1
(g73
g3
Ntp1937
Rp1938
(dp1939
g190
g1
(g8
g3
Ntp1940
Rp1941
(lp1942
F0.9238795325112871
aF0.3826834323650889
absg198
(dp1943
sg13
I0
sg194
I0
sg200
g468
sg201
g1
(g8
g3
Ntp1944
Rp1945
(lp1946
F2300.909989601241
aF-711.2588889359408
absg195
I0
sg19
I00
sg20
g21
(I2186
I-781
I229
I140
tp1947
Rp1948
sbag1
(g73
g3
Ntp1949
Rp1950
(dp1951
g1116
g1
(g8
g3
Ntp1952
Rp1953
(lp1954
F0.7071067811865477
aF-0.7071067811865472
absg1120
(dp1955
sg1122
I0
sg1123
I0
sg1124
g770
sg1125
g1
(g8
g3
Ntp1956
Rp1957
(lp1958
F-0.7071067811865474
aF-0.7071067811865477
absg1129
g1
(g8
g3
Ntp1959
Rp1960
(lp1961
F667.8098535734947
aF1113.137089643173
absg19
I00
sg1133
g21
(I607
I1053
I121
I121
tp1962
Rp1963
sbag1
(g73
g3
Ntp1964
Rp1965
(dp1966
g1345
g1
(g8
g3
Ntp1967
Rp1968
(lp1969
F-0.7071067811865474
aF-0.7071067811865477
absg1349
(dp1970
sg13
I0
sg1351
I0
sg1352
g770
sg1353
g1
(g8
g3
Ntp1971
Rp1972
(lp1973
F868.0588344540605
aF1206.1481427477772
absg18
I0
sg19
I00
sg20
g21
(I808
I1146
I121
I121
tp1974
Rp1975
sbag1
(g73
g3
Ntp1976
Rp1977
(dp1978
g300
g1
(g8
g3
Ntp1979
Rp1980
(lp1981
F0.9238795325112868
aF-0.38268343236508945
absg317
(dp1982
sg13
I0
sg309
I0
sg319
g85
sg305
g1
(g8
g3
Ntp1983
Rp1984
(lp1985
F0.9238795325112868
aF-0.38268343236508945
absg321
g1
(g8
g3
Ntp1986
Rp1987
(lp1988
F2040.6841357144763
aF-245.19248749373742
absg313
I0
sg19
I00
sg314
g21
(I1926
I-315
I229
I140
tp1989
Rp1990
sbag1
(g2
g3
Ntp1991
Rp1992
(dp1993
g77
g1
(g8
g3
Ntp1994
Rp1995
(lp1996
F-0.9238795325112864
aF-0.38268343236509034
absg12
F0.19660345168853363
sg13
I0
sg83
I0
sg15
F227.9116882454314
sg16
I-1
sg176
F0.7853981633974483
sg18
I0
sg19
I00
sg20
g21
(I2327
I-461
I203
I164
tp1997
Rp1998
sg81
(dp1999
sg84
g27
sg86
g1
(g8
g3
Ntp2000
Rp2001
(lp2002
F2428.389476157704
aF-379.96278820433577
absbag1
(g73
g3
Ntp2003
Rp2004
(dp2005
S'direction'
p2006
g1
(g8
g3
Ntp2007
Rp2008
(lp2009
F-0.9238795325112864
aF-0.3826834323650904
absS'_Sprite__g'
p2010
(dp2011
sg13
I0
sS'layer'
p2012
I0
sS'filename'
p2013
g85
sS'prev_direction'
p2014
g1
(g8
g3
Ntp2015
Rp2016
(lp2017
F-0.7071067811865479
aF0.7071067811865472
absS'position'
p2018
g1
(g8
g3
Ntp2019
Rp2020
(lp2021
F2624.7407106925107
aF-330.0648526915391
absS'speed'
p2022
I0
sg19
I00
sS'rect'
p2023
g21
(I2510
I-400
I229
I140
tp2024
Rp2025
sbag1
(g2
g3
Ntp2026
Rp2027
(dp2028
g220
g1
(g8
g3
Ntp2029
Rp2030
(lp2031
F0.38268343236508995
aF-0.9238795325112866
absg12
F0.19660345168853363
sg13
I0
sg224
I0
sg15
F227.9116882454314
sg16
I-1
sg59
F0.7853981633974483
sg225
I0
sg19
I00
sg20
g21
(I2837
I-338
I164
I203
tp2032
Rp2033
sg228
(dp2034
sg230
g27
sg231
g1
(g8
g3
Ntp2035
Rp2036
(lp2037
F2919.67657691855
aF-237.36654452341705
absbag1
(g2
g3
Ntp2038
Rp2039
(dp2040
g220
g1
(g8
g3
Ntp2041
Rp2042
(lp2043
F0.9238795325112863
aF0.38268343236509
absg12
F0.19660345168853363
sg13
I0
sg224
I0
sg15
F227.9116882454314
sg16
I-1
sg59
F0.7853981633974483
sg225
I0
sg19
I00
sg20
g21
(I2474
I237
I203
I164
tp2044
Rp2045
sg228
(dp2046
sg230
g27
sg231
g1
(g8
g3
Ntp2047
Rp2048
(lp2049
F2575.116410715746
aF319.6974888557495
absbag1
(g49
g3
Ntp2050
Rp2051
(dp2052
g239
g1
(g8
g3
Ntp2053
Rp2054
(lp2055
F-0.38268343236509
aF0.9238795325112861
absg243
F0.19660345168853363
sg244
I01
sg13
I0
sg245
I0
sg246
F227.9116882454314
sg247
I1
sg248
F0.7853981633974483
sg249
I0
sg19
I00
sg250
g21
(I2633
I160
I164
I203
tp2056
Rp2057
sg253
I110
sg254
(dp2058
sg256
g1
(g8
g3
Ntp2059
Rp2060
(lp2061
F-0.7071067811865477
aF0.7071067811865475
absg260
S'switch-right-f.png'
p2062
sg262
I2489139
sg263
g1
(g8
g3
Ntp2063
Rp2064
(lp2065
F2715.518774478674
aF261.54092559590407
absbag1
(g73
g3
Ntp2066
Rp2067
(dp2068
S'direction'
p2069
g1
(g8
g3
Ntp2070
Rp2071
(lp2072
F0.3826834323650904
aF-0.9238795325112864
absS'_Sprite__g'
p2073
(dp2074
sg1122
I0
sS'layer'
p2075
I0
sS'filename'
p2076
g770
sS'prev_direction'
p2077
g1
(g8
g3
Ntp2078
Rp2079
(lp2080
F0.7071067811865478
aF-0.7071067811865474
absS'position'
p2081
g1
(g8
g3
Ntp2082
Rp2083
(lp2084
F2797.4344422188387
aF139.6659714521448
absg19
I00
sS'rect'
p2085
g21
(I2748
I76
I98
I126
tp2086
Rp2087
sbag1
(g49
g3
Ntp2088
Rp2089
(dp2090
g329
g1
(g8
g3
Ntp2091
Rp2092
(lp2093
F0.7071067811865472
aF0.7071067811865479
absg417
F0.19660345168853363
sg418
I01
sg335
I0
sg336
I0
sg419
F227.9116882454314
sg420
I1
sg421
F0.7853981633974483
sg19
I00
sg347
g21
(I1535
I-729
I199
I199
tp2094
Rp2095
sg424
I10922
sg333
(dp2096
sg339
g1
(g8
g3
Ntp2097
Rp2098
(lp2099
F-4.440892098500628e-16
aF1.0
absg337
S'switch-right-f.png'
p2100
sg430
I3607593
sg343
g1
(g8
g3
Ntp2101
Rp2102
(lp2103
F1634.393080115204
aF-630.4840867777149
absbag1
(g235
g3
Ntp2104
Rp2105
(dp2106
g1629
g1
(g8
g3
Ntp2107
Rp2108
(lp2109
F0.3826834323650904
aF-0.9238795325112864
absg1633
F0.19660345168853363
sg1634
I00
sg1635
I0
sg1636
I0
sg1637
F227.9116882454314
sg1638
I-1
sg1639
F0.7853981633974483
sg19
I00
sg1640
g21
(I2775
I-187
I164
I203
tp2110
Rp2111
sg1643
I44
sg1644
(dp2112
sg1646
g1
(g8
g3
Ntp2113
Rp2114
(lp2115
F-0.9238795325112865
aF-0.3826834323650904
absg1650
S'switch-left-f.png'
p2116
sg1652
I2491139
sg1653
g1
(g8
g3
Ntp2117
Rp2118
(lp2119
F2857.0217319545754
aF-86.1043680630067
absbag1
(g2
g3
Ntp2120
Rp2121
(dp2122
g270
g1
(g8
g3
Ntp2123
Rp2124
(lp2125
F-0.38268343236508917
aF-0.9238795325112864
absg274
F0.19660345168853363
sg286
g1
(g8
g3
Ntp2126
Rp2127
(lp2128
F0.7071067811865477
aF-0.7071067811865474
absg13
I0
sg276
I0
sg277
F227.9116882454314
sg278
I-1
sg279
F0.7853981633974483
sg249
I0
sg19
I00
sg280
g21
(I2707
I-337
I164
I203
tp2129
Rp2130
sg284
(dp2131
sg290
g27
sg293
g1
(g8
g3
Ntp2132
Rp2133
(lp2134
F2789.2867644259545
aF-236.08513609470995
absbag1
(g2
g3
Ntp2135
Rp2136
(dp2137
S'direction'
p2138
g1
(g8
g3
Ntp2139
Rp2140
(lp2141
F0.7071067811865478
aF-0.7071067811865471
absS'frac'
p2142
F0.19660345168853363
sS'prev_direction'
p2143
g1
(g8
g3
Ntp2144
Rp2145
(lp2146
F-0.3826834323650894
aF-0.923879532511287
absS'target_speed'
p2147
I0
sS'layer'
p2148
I0
sS'radius'
p2149
F227.9116882454314
sS'mirror'
p2150
I-1
sS'theta'
p2151
F0.7853981633974483
sg19
I00
sS'rect'
p2152
g21
(I4229
I146
I199
I199
tp2153
Rp2154
sS'_Sprite__g'
p2155
(dp2156
sS'filename'
p2157
g27
sS'position'
p2158
g1
(g8
g3
Ntp2159
Rp2160
(lp2161
F4328.478744161084
aF245.1578904120963
absbag1
(g2
g3
Ntp2162
Rp2163
(dp2164
g2138
g1
(g8
g3
Ntp2165
Rp2166
(lp2167
F1.0
aF4.440892098500626e-16
absg2142
F0.19660345168853363
sg2143
g1
(g8
g3
Ntp2168
Rp2169
(lp2170
F0.3826834323650902
aF-0.9238795325112866
absg2147
I0
sg2148
I0
sg2149
F227.9116882454314
sg2150
I-1
sg2151
F0.7853981633974483
sg19
I00
sg2152
g21
(I4127
I313
I177
I105
tp2171
Rp2172
sg2155
(dp2173
sg2157
g27
sg2158
g1
(g8
g3
Ntp2174
Rp2175
(lp2176
F4215.835632171262
aF365.1319956462302
absbag1
(g2
g3
Ntp2177
Rp2178
(dp2179
g2138
g1
(g8
g3
Ntp2180
Rp2181
(lp2182
F0.7071067811865472
aF0.7071067811865478
absg2142
F0.19660345168853363
sg2143
g1
(g8
g3
Ntp2183
Rp2184
(lp2185
F1.0
aF4.440892098500626e-16
absg2147
I0
sg2148
I0
sg2149
F227.9116882454314
sg2150
I-1
sg2151
F0.7853981633974483
sg19
I00
sg2152
g21
(I3952
I271
I199
I199
tp2186
Rp2187
sg2155
(dp2188
sg2157
g27
sg2158
g1
(g8
g3
Ntp2189
Rp2190
(lp2191
F4051.350420451458
aF370.31579068211505
absbag1
(g2
g3
Ntp2192
Rp2193
(dp2194
g2138
g1
(g8
g3
Ntp2195
Rp2196
(lp2197
F0.7071067811865474
aF0.7071067811865476
absg2142
F0.19660345168853363
sg2143
g1
(g8
g3
Ntp2198
Rp2199
(lp2200
F-2.7755575615628914e-16
aF1.0
absg2147
I0
sg2148
I0
sg2149
F227.9116882454314
sg2150
I-1
sg2151
F0.7853981633974483
sg19
I00
sg2152
g21
(I3952
I107
I199
I199
tp2201
Rp2202
sg2155
(dp2203
sg2157
g27
sg2158
g1
(g8
g3
Ntp2204
Rp2205
(lp2206
F4051.3504204514575
aF206.5907906821151
absbag1
(g2
g3
Ntp2207
Rp2208
(dp2209
g2138
g1
(g8
g3
Ntp2210
Rp2211
(lp2212
F0.9999999999999998
aF3.885780586188048e-16
absg2142
F0.19660345168853363
sg2143
g1
(g8
g3
Ntp2213
Rp2214
(lp2215
F0.7071067811865474
aF0.7071067811865476
absg2147
I0
sg2148
I0
sg2149
F227.9116882454314
sg2150
I-1
sg2151
F0.7853981633974483
sg19
I00
sg2152
g21
(I4127
I149
I177
I105
tp2216
Rp2217
sg2155
(dp2218
sg2157
g27
sg2158
g1
(g8
g3
Ntp2219
Rp2220
(lp2221
F4215.835632171262
aF201.40699564623017
absbag1
(g49
g3
Ntp2222
Rp2223
(dp2224
g2138
g1
(g8
g3
Ntp2225
Rp2226
(lp2227
F-5.551115123125783e-16
aF1.0
absg2142
F0.19660345168853363
sg2143
g1
(g8
g3
Ntp2228
Rp2229
(lp2230
F0.7071067811865472
aF0.7071067811865479
absg2147
I0
sg2148
I0
sg2149
F227.9116882454314
sg2150
I1
sg19
I00
sg2152
g21
(I4271
I5
I105
I177
tp2231
Rp2232
sS'touches'
p2233
I0
sg2158
g1
(g8
g3
Ntp2234
Rp2235
(lp2236
F4323.294949125199
aF93.94767869229202
absg2155
(dp2237
sS'switched'
p2238
I00
sg2157
S'switch-right-f.png'
p2239
sS'prior_ticks'
p2240
I0
sg2151
F0.7853981633974483
sbag1
(g235
g3
Ntp2241
Rp2242
(dp2243
g2138
g1
(g8
g3
Ntp2244
Rp2245
(lp2246
F9.43689570931383e-16
aF-1.0
absg2142
F0.19660345168853363
sg2143
g1
(g8
g3
Ntp2247
Rp2248
(lp2249
F-9.43689570931383e-16
aF1.0
absg2147
I0
sg2148
I0
sg2149
F227.9116882454314
sg2150
I-1
sg19
I00
sg2152
g21
(I4271
I-171
I105
I177
tp2250
Rp2251
sg2233
I0
sg2158
g1
(g8
g3
Ntp2252
Rp2253
(lp2254
F4323.294949125199
aF-83.05232130770798
absg2155
(dp2255
sg2238
I00
sg2157
S'switch-left-f.png'
p2256
sg2240
I0
sg2151
F0.7853981633974483
sbag1
(g325
g3
Ntp2257
Rp2258
(dp2259
g329
g1
(g8
g3
Ntp2260
Rp2261
(lp2262
F0.38268343236508967
aF0.9238795325112867
absg333
(dp2263
sg335
I0
sg336
I0
sg337
g338
sg339
g1
(g8
g3
Ntp2264
Rp2265
(lp2266
F0.7071067811865475
aF0.7071067811865476
absg343
g1
(g8
g3
Ntp2267
Rp2268
(lp2269
F1909.4932420978735
aF-190.8514400978947
absg19
I00
sg347
g21
(I1870
I-229
I78
I78
tp2270
Rp2271
sbag1
(g73
g3
Ntp2272
Rp2273
(dp2274
g2138
g1
(g8
g3
Ntp2275
Rp2276
(lp2277
F-0.923879532511287
aF0.38268343236508906
absg2155
(dp2278
sg2147
I0
sg2148
I0
sg2157
g85
sg2143
g1
(g8
g3
Ntp2279
Rp2280
(lp2281
F-0.923879532511287
aF0.38268343236508906
absg2158
g1
(g8
g3
Ntp2282
Rp2283
(lp2284
F2039.65963563882
aF-244.7681256677484
absg19
I00
sg2152
g21
(I1925
I-314
I229
I140
tp2285
Rp2286
sbag1
(g73
g3
Ntp2287
Rp2288
(dp2289
g1672
g1
(g8
g3
Ntp2290
Rp2291
(lp2292
F-0.923879532511287
aF0.38268343236508906
absg1686
(dp2293
sg1635
I0
sg1678
I0
sg1692
g85
sg1688
g1
(g8
g3
Ntp2294
Rp2295
(lp2296
F0.9238795325112868
aF-0.38268343236508945
absg1695
g1
(g8
g3
Ntp2297
Rp2298
(lp2299
F2245.584150845692
aF-330.0648526915394
absg19
I00
sg1682
g21
(I2131
I-400
I229
I140
tp2300
Rp2301
sbag1
(g73
g3
Ntp2302
Rp2303
(dp2304
g2138
g1
(g8
g3
Ntp2305
Rp2306
(lp2307
F-0.707106781186547
aF-0.707106781186548
absg2155
(dp2308
sg2147
I0
sg2148
I0
sg2157
g468
sg2143
g1
(g8
g3
Ntp2309
Rp2310
(lp2311
F-0.707106781186548
aF0.707106781186547
absg2158
g1
(g8
g3
Ntp2312
Rp2313
(lp2314
F4207.2386984453415
aF-232.84730656757455
absg19
I00
sg2152
g21
(I4107
I-332
I200
I200
tp2315
Rp2316
sbag1
(g73
g3
Ntp2317
Rp2318
(dp2319
g2138
g1
(g8
g3
Ntp2320
Rp2321
(lp2322
F-0.707106781186547
aF-0.707106781186548
absg2155
(dp2323
sg2147
I0
sg2148
I0
sg2157
g468
sg2143
g1
(g8
g3
Ntp2324
Rp2325
(lp2326
F-0.707106781186547
aF-0.707106781186548
absg2158
g1
(g8
g3
Ntp2327
Rp2328
(lp2329
F4048.846779459555
aF-391.2392255533613
absg19
I00
sg2152
g21
(I3948
I-491
I200
I200
tp2330
Rp2331
sbag1
(g235
g3
Ntp2332
Rp2333
(dp2334
g2138
g1
(g8
g3
Ntp2335
Rp2336
(lp2337
F-9.43689570931383e-16
aF1.0
absg2142
F0.19660345168853363
sg2143
g1
(g8
g3
Ntp2338
Rp2339
(lp2340
F0.38268343236509045
aF-0.9238795325112865
absg2147
I0
sg2148
I0
sg2149
F227.9116882454314
sg2150
I-1
sg19
I00
sg2152
g21
(I3879
I5
I105
I177
tp2341
Rp2342
sg2233
I0
sg2158
g1
(g8
g3
Ntp2343
Rp2344
(lp2345
F3931.3763152173237
aF93.94767869229189
absg2155
(dp2346
sg2238
I00
sg2157
g2256
sg2240
I0
sg2151
F0.7853981633974483
sbag1
(g235
g3
Ntp2347
Rp2348
(dp2349
g2138
g1
(g8
g3
Ntp2350
Rp2351
(lp2352
F-9.43689570931383e-16
aF1.0
absg2142
F0.19660345168853363
sg2143
g1
(g8
g3
Ntp2353
Rp2354
(lp2355
F-9.43689570931383e-16
aF1.0
absg2147
I0
sg2148
I0
sg2149
F227.9116882454314
sg2150
I-1
sg19
I00
sg2152
g21
(I3881
I-628
I105
I177
tp2356
Rp2357
sg2233
I0
sg2158
g1
(g8
g3
Ntp2358
Rp2359
(lp2360
F3933.5746471905177
aF-540.2500924024072
absg2155
(dp2361
sg2238
I00
sg2157
g2256
sg2240
I0
sg2151
F0.7853981633974483
sbag1
(g325
g3
Ntp2362
Rp2363
(dp2364
g2138
g1
(g8
g3
Ntp2365
Rp2366
(lp2367
F-0.7071067811865477
aF0.7071067811865475
absg2155
(dp2368
sg2147
I0
sg2148
I0
sg2157
S'crossing-f.png'
p2369
sg2143
g1
(g8
g3
Ntp2370
Rp2371
(lp2372
F0.38268343236508967
aF0.9238795325112867
absg2158
g1
(g8
g3
Ntp2373
Rp2374
(lp2375
F4128.072846954333
aF-313.790492716989
absg19
I00
sg2152
g21
(I4086
I-355
I84
I84
tp2376
Rp2377
sbag1
(g73
g3
Ntp2378
Rp2379
(dp2380
g2138
g1
(g8
g3
Ntp2381
Rp2382
(lp2383
F-0.707106781186548
aF0.707106781186547
absg2155
(dp2384
sg2147
I0
sg2148
I0
sg2157
g468
sg2143
g1
(g8
g3
Ntp2385
Rp2386
(lp2387
F-0.707106781186548
aF0.707106781186547
absg2158
g1
(g8
g3
Ntp2388
Rp2389
(lp2390
F4207.2386984453415
aF-389.6709887317198
absg19
I00
sg2152
g21
(I4107
I-489
I200
I200
tp2391
Rp2392
sbag1
(g73
g3
Ntp2393
Rp2394
(dp2395
S'direction'
p2396
g1
(g8
g3
Ntp2397
Rp2398
(lp2399
F-0.923879532511287
aF0.38268343236508906
absS'_Sprite__g'
p2400
(dp2401
sg13
I0
sS'layer'
p2402
I0
sS'filename'
p2403
g770
sS'position'
p2404
g1
(g8
g3
Ntp2405
Rp2406
(lp2407
F2055.2433043547526
aF248.36928113050766
absg225
I0
sg19
I00
sg20
g21
(I1992
I199
I126
I98
tp2408
Rp2409
sbag1
(g73
g3
Ntp2410
Rp2411
(dp2412
g2138
g1
(g8
g3
Ntp2413
Rp2414
(lp2415
F-7.771561172376096e-16
aF0.9999999999999999
absg2155
(dp2416
sS'target_speed'
p2417
I0
sg2148
I0
sg2157
g468
sg2143
g1
(g8
g3
Ntp2418
Rp2419
(lp2420
F-0.707106781186548
aF0.707106781186547
absg2158
g1
(g8
g3
Ntp2421
Rp2422
(lp2423
F3902.52779272611
aF-268.2814894496459
absg19
I00
sg2152
g21
(I3873
I-380
I59
I224
tp2424
Rp2425
sbag1
(g73
g3
Ntp2426
Rp2427
(dp2428
g2138
g1
(g8
g3
Ntp2429
Rp2430
(lp2431
F-7.771561172376097e-16
aF1.0
absg2155
(dp2432
sg2417
I0
sg2148
I0
sg2157
g468
sg2143
g1
(g8
g3
Ntp2433
Rp2434
(lp2435
F-7.771561172376097e-16
aF1.0
absg2158
g1
(g8
g3
Ntp2436
Rp2437
(lp2438
F4352.335632171261
aF-269.1684104166188
absg19
I00
sg2152
g21
(I4323
I-381
I59
I224
tp2439
Rp2440
sbag1
(g73
g3
Ntp2441
Rp2442
(dp2443
g2138
g1
(g8
g3
Ntp2444
Rp2445
(lp2446
F-7.2164496600635185e-16
aF1.0
absg2155
(dp2447
sg2417
I0
sg2148
I0
sg2157
g770
sg2143
g1
(g8
g3
Ntp2448
Rp2449
(lp2450
F-7.2164496600635185e-16
aF1.0
absg2158
g1
(g8
g3
Ntp2451
Rp2452
(lp2453
F3904.533964144456
aF-409.02509240240715
absg19
I00
sg2152
g21
(I3874
I-465
I60
I112
tp2454
Rp2455
sbag1
(g73
g3
Ntp2456
Rp2457
(dp2458
g2138
g1
(g8
g3
Ntp2459
Rp2460
(lp2461
F-7.216449660063518e-16
aF0.9999999999999999
absg2155
(dp2462
sg2417
I0
sg2148
I0
sg2157
g770
sg2143
g1
(g8
g3
Ntp2463
Rp2464
(lp2465
F-0.923879532511287
aF0.38268343236508906
absg2158
g1
(g8
g3
Ntp2466
Rp2467
(lp2468
F4352.335632171261
aF-436.6139549710743
absg19
I00
sg2152
g21
(I4322
I-492
I60
I112
tp2469
Rp2470
sbag1
(g49
g3
Ntp2471
Rp2472
(dp2473
g2138
g1
(g8
g3
Ntp2474
Rp2475
(lp2476
F7.216449660063518e-16
aF-0.9999999999999999
absg2142
F0.19660345168853363
sg2143
g1
(g8
g3
Ntp2477
Rp2478
(lp2479
F-5.551115123125783e-16
aF1.0
absg2147
I0
sg2148
I0
sg2149
F227.9116882454314
sg2150
I1
sg19
I00
sg2152
g21
(I3879
I-170
I105
I177
tp2480
Rp2481
sg2233
I0
sg2158
g1
(g8
g3
Ntp2482
Rp2483
(lp2484
F3931.568475772172
aF-82.16540034073506
absg2155
(dp2485
sg2238
I00
sg2157
g2239
sg2240
I0
sg2151
F0.7853981633974483
sbag1
(g49
g3
Ntp2486
Rp2487
(dp2488
g2138
g1
(g8
g3
Ntp2489
Rp2490
(lp2491
F-9.43689570931383e-16
aF1.0
absg2142
F0.19660345168853363
sg2238
I00
sg2417
I0
sg2148
I0
sg2149
F227.9116882454314
sg2150
I1
sg2151
F0.7853981633974483
sg19
I00
sg2152
g21
(I4271
I-627
I105
I177
tp2492
Rp2493
sg2233
I0
sg2155
(dp2494
sg2143
g1
(g8
g3
Ntp2495
Rp2496
(lp2497
F7.2164496600635185e-16
aF-1.0
absg2157
g2239
sg2240
I0
sg2158
g1
(g8
g3
Ntp2498
Rp2499
(lp2500
F4323.294949125199
aF-539.4659739915862
absbag1
(g73
g3
Ntp2501
Rp2502
(dp2503
g329
g1
(g8
g3
Ntp2504
Rp2505
(lp2506
F-0.7071067811865479
aF0.7071067811865469
absg333
(dp2507
sg335
I0
sg336
I0
sg337
g468
sg339
g1
(g8
g3
Ntp2508
Rp2509
(lp2510
F0.923879532511287
aF-0.38268343236508906
absg343
g1
(g8
g3
Ntp2511
Rp2512
(lp2513
F4046.8406080412096
aF-231.17626718978073
absg19
I00
sg347
g21
(I3946
I-331
I200
I200
tp2514
Rp2515
sbag1
(g2
g3
Ntp2516
Rp2517
(dp2518
g2138
g1
(g8
g3
Ntp2519
Rp2520
(lp2521
F-2.7755575615628914e-16
aF1.0
absg2142
F0.19660345168853363
sg2143
g1
(g8
g3
Ntp2522
Rp2523
(lp2524
F0.7071067811865472
aF0.7071067811865478
absg2147
I0
sg2148
I0
sg2149
F227.9116882454314
sg2150
I-1
sg2151
F0.7853981633974483
sg19
I00
sg2152
g21
(I3879
I169
I105
I177
tp2525
Rp2526
sg2155
(dp2527
sg2157
g27
sg2158
g1
(g8
g3
Ntp2528
Rp2529
(lp2530
F3931.3763152173237
aF257.67267869229187
absbag1
(g73
g3
Ntp2531
Rp2532
(dp2533
g650
g1
(g8
g3
Ntp2534
Rp2535
(lp2536
F-1.0
aF-6.661338147750939e-16
absg659
(dp2537
sg13
I0
sg655
I0
sg661
g85
sg665
g1
(g8
g3
Ntp2538
Rp2539
(lp2540
F-97.50206195867125
aF531.8283931024649
absg18
I0
sg19
I00
sg20
g21
(I-209
I502
I224
I59
tp2541
Rp2542
sbag1
(g474
g3
Ntp2543
Rp2544
(dp2545
g329
g1
(g8
g3
Ntp2546
Rp2547
(lp2548
F-1.0
aF-1.6653345369377348e-16
absg333
(dp2549
sg335
I0
sg336
I0
sg337
g482
sg339
g1
(g8
g3
Ntp2550
Rp2551
(lp2552
F-1.0
aF-1.6653345369377348e-16
absg343
g1
(g8
g3
Ntp2553
Rp2554
(lp2555
F-290.6002000000005
aF89.92033333333349
absg19
I00
sg347
g21
(I-355
I37
I131
I104
tp2556
Rp2557
sbag1
(g2
g3
Ntp2558
Rp2559
(dp2560
g650
g1
(g8
g3
Ntp2561
Rp2562
(lp2563
F0.7071067811865471
aF0.7071067811865479
absg12
F0.19660345168853363
sg13
I0
sg655
I0
sg15
F227.9116882454314
sg16
I-1
sg176
F0.7853981633974483
sg18
I0
sg19
I00
sg20
g21
(I737
I-332
I199
I199
tp2564
Rp2565
sg659
(dp2566
sg661
g27
sg665
g1
(g8
g3
Ntp2567
Rp2568
(lp2569
F836.9815594745454
aF-233.52988975902704
absbag1
(g2
g3
Ntp2570
Rp2571
(dp2572
g494
g1
(g8
g3
Ntp2573
Rp2574
(lp2575
F0.9999999999999999
aF3.885780586188048e-16
absg12
F0.19660345168853363
sg13
I0
sg498
I0
sg15
F227.9116882454314
sg16
I-1
sg176
F0.7853981633974483
sg18
I0
sg19
I00
sg20
g21
(I-663
I853
I177
I105
tp2576
Rp2577
sg501
(dp2578
sg503
g27
sg504
g1
(g8
g3
Ntp2579
Rp2580
(lp2581
F-575.4151258805916
aF905.3689274401445
absbag1
(g474
g3
Ntp2582
Rp2583
(dp2584
g1843
g1
(g8
g3
Ntp2585
Rp2586
(lp2587
F2.7755575615628914e-16
aF-1.0
absg1847
(dp2588
sg13
I0
sg1849
I0
sg1850
g482
sg1851
g1
(g8
g3
Ntp2589
Rp2590
(lp2591
F-0.7071067811865477
aF0.7071067811865475
absg1855
g1
(g8
g3
Ntp2592
Rp2593
(lp2594
F146.07222702868347
aF-200.72046718619276
absg1448
I0
sg19
I00
sg1859
g21
(I94
I-265
I104
I131
tp2595
Rp2596
sbag1
(g2
g3
Ntp2597
Rp2598
(dp2599
g300
g1
(g8
g3
Ntp2600
Rp2601
(lp2602
F-0.923879532511287
aF-0.3826834323650894
absg304
F0.19877594239892932
sg305
g1
(g8
g3
Ntp2603
Rp2604
(lp2605
F0.7071067811865478
aF0.7071067811865472
absg13
I0
sg309
I0
sg310
F228.18158450703123
sg311
I-1
sg312
F0.39269908169872414
sg313
I0
sg19
I00
sg314
g21
(I968
I-346
I112
I93
tp2606
Rp2607
sg317
(dp2608
sg319
g320
sg321
g1
(g8
g3
Ntp2609
Rp2610
(lp2611
F1024.157665873789
aF-300.8331142925229
absbag1
(g325
g3
Ntp2612
Rp2613
(dp2614
S'direction'
p2615
g1
(g8
g3
Ntp2616
Rp2617
(lp2618
F0.9238795325112866
aF0.3826834323650897
absS'_Sprite__g'
p2619
(dp2620
sg335
I0
sS'layer'
p2621
I0
sS'filename'
p2622
S'crossing-f.png'
p2623
sS'prev_direction'
p2624
g1
(g8
g3
Ntp2625
Rp2626
(lp2627
F1.0
aF0.0
absS'position'
p2628
g1
(g8
g3
Ntp2629
Rp2630
(lp2631
F2131.708052986818
aF1222.6613892845035
absg19
I00
sS'rect'
p2632
g21
(I2092
I1183
I78
I78
tp2633
Rp2634
sbag1
(g474
g3
Ntp2635
Rp2636
(dp2637
g1843
g1
(g8
g3
Ntp2638
Rp2639
(lp2640
F0.9999999999999998
aF3.885780586188048e-16
absg1847
(dp2641
sg13
I0
sg1849
I0
sg1850
g482
sg1851
g1
(g8
g3
Ntp2642
Rp2643
(lp2644
F-0.7071067811865477
aF0.7071067811865475
absg1855
g1
(g8
g3
Ntp2645
Rp2646
(lp2647
F802.2460077763749
aF-111.75399222362518
absg1448
I0
sg19
I00
sg1859
g21
(I737
I-163
I131
I104
tp2648
Rp2649
sbag1
(g2
g3
Ntp2650
Rp2651
(dp2652
S'direction'
p2653
g1
(g8
g3
Ntp2654
Rp2655
(lp2656
F-0.923879532511287
aF-0.3826834323650894
absS'frac'
p2657
F0.19877594239892932
sS'prev_direction'
p2658
g1
(g8
g3
Ntp2659
Rp2660
(lp2661
F0.923879532511287
aF0.3826834323650894
absg2417
I0
sS'layer'
p2662
I0
sS'radius'
p2663
F228.18158450703123
sS'mirror'
p2664
I-1
sS'theta'
p2665
F0.39269908169872414
sg19
I00
sS'rect'
p2666
g21
(I281
I-855
I112
I93
tp2667
Rp2668
sS'_Sprite__g'
p2669
(dp2670
sS'filename'
p2671
g320
sS'position'
p2672
g1
(g8
g3
Ntp2673
Rp2674
(lp2675
F337.2578311630453
aF-809.1569159454154
absbag1
(g2
g3
Ntp2676
Rp2677
(dp2678
g1116
g1
(g8
g3
Ntp2679
Rp2680
(lp2681
F0.923879532511287
aF0.3826834323650894
absS'frac'
p2682
F0.19877594239892932
sg1125
g1
(g8
g3
Ntp2683
Rp2684
(lp2685
F-0.923879532511287
aF-0.3826834323650894
absg1122
I0
sg1123
I0
sS'radius'
p2686
F228.18158450703123
sS'mirror'
p2687
I-1
sS'theta'
p2688
F0.39269908169872414
sg19
I00
sg1133
g21
(I375
I-831
I112
I93
tp2689
Rp2690
sg1120
(dp2691
sg1124
g320
sg1129
g1
(g8
g3
Ntp2692
Rp2693
(lp2694
F431.52762509796634
aF-785.8842417289545
absbag1
(g73
g3
Ntp2695
Rp2696
(dp2697
S'direction'
p2698
g1
(g8
g3
Ntp2699
Rp2700
(lp2701
F0.9999999999999991
aF2.1060627200530933e-16
absS'_Sprite__g'
p2702
(dp2703
sg13
I0
sS'layer'
p2704
I0
sS'filename'
p2705
S'straight-f.png'
p2706
sS'position'
p2707
g1
(g8
g3
Ntp2708
Rp2709
(lp2710
F-292.0770199959216
aF337.2534350652144
absg753
I0
sg19
I00
sg20
g21
(I-404
I308
I224
I59
tp2711
Rp2712
sbag1
(g2
g3
Ntp2713
Rp2714
(dp2715
g77
g1
(g8
g3
Ntp2716
Rp2717
(lp2718
F0.9999999999999999
aF6.661338147750939e-16
absg12
F0.19660345168853363
sg13
I0
sg83
I0
sg15
F227.9116882454314
sg16
I-1
sg17
F0.7853981633974483
sg18
I0
sg19
I00
sg20
g21
(I797
I-406
I177
I105
tp2719
Rp2720
sg81
(dp2721
sg84
g27
sg86
g1
(g8
g3
Ntp2722
Rp2723
(lp2724
F885.6957134445823
aF-354.4847425446794
absbag1
(g2
g3
Ntp2725
Rp2726
(dp2727
g171
g1
(g8
g3
Ntp2728
Rp2729
(lp2730
F0.707106781186547
aF0.7071067811865477
absg12
F0.19660345168853363
sg13
I0
sg175
I0
sg15
F227.9116882454314
sg16
I-1
sg176
F0.7853981633974483
sg177
I0
sg19
I00
sg20
g21
(I1258
I-452
I199
I199
tp2731
Rp2732
sg180
(dp2733
sg182
g27
sg183
g1
(g8
g3
Ntp2734
Rp2735
(lp2736
F1357.2647564055765
aF-353.3557630680876
absbag1
(g73
g3
Ntp2737
Rp2738
(dp2739
g650
g1
(g8
g3
Ntp2740
Rp2741
(lp2742
F-1.0
aF-6.661338147750939e-16
absg659
(dp2743
sg13
I0
sg655
I0
sg661
g85
sg665
g1
(g8
g3
Ntp2744
Rp2745
(lp2746
F1159.7249681253809
aF-779.4988750579108
absg18
I0
sg19
I00
sg20
g21
(I1047
I-808
I224
I59
tp2747
Rp2748
sbag1
(g2
g3
Ntp2749
Rp2750
(dp2751
g494
g1
(g8
g3
Ntp2752
Rp2753
(lp2754
F-0.707106781186547
aF-0.7071067811865478
absg12
F0.19660345168853363
sg13
I0
sg498
I0
sg15
F227.9116882454314
sg16
I-1
sg176
F0.7853981633974483
sg18
I0
sg19
I00
sg20
g21
(I506
I59
I199
I199
tp2755
Rp2756
sg501
(dp2757
sg503
g27
sg504
g1
(g8
g3
Ntp2758
Rp2759
(lp2760
F605.0478455620519
aF158.68332929121263
absbag1
(g2
g3
Ntp2761
Rp2762
(dp2763
g171
g1
(g8
g3
Ntp2764
Rp2765
(lp2766
F-1.0
aF-2.220446049250313e-16
absg12
F0.19660345168853363
sg13
I0
sg175
I0
sg15
F227.9116882454314
sg16
I-1
sg176
F0.7853981633974483
sg177
I0
sg19
I00
sg20
g21
(I-269
I-834
I177
I105
tp2767
Rp2768
sg180
(dp2769
sg182
g27
sg183
g1
(g8
g3
Ntp2770
Rp2771
(lp2772
F-181.12889534878167
aF-782.3583732836696
absbag1
(g73
g3
Ntp2773
Rp2774
(dp2775
g1672
g1
(g8
g3
Ntp2776
Rp2777
(lp2778
F-0.7071067811865479
aF0.7071067811865471
absg1686
(dp2779
sg1635
I0
sg1678
I0
sg1692
g770
sg1688
g1
(g8
g3
Ntp2780
Rp2781
(lp2782
F-0.7071067811865479
aF0.7071067811865471
absg1695
g1
(g8
g3
Ntp2783
Rp2784
(lp2785
F-291.32590086220154
aF-705.900102350258
absg19
I00
sg1682
g21
(I-351
I-765
I121
I121
tp2786
Rp2787
sbag1
(g73
g3
Ntp2788
Rp2789
(dp2790
g494
g1
(g8
g3
Ntp2791
Rp2792
(lp2793
F-0.7071067811865479
aF0.7071067811865471
absg501
(dp2794
sg13
I0
sg498
I0
sg503
g770
sg504
g1
(g8
g3
Ntp2795
Rp2796
(lp2797
F-365.9184855525697
aF-631.7952398407508
absg18
I0
sg19
I00
sg20
g21
(I-425
I-691
I121
I121
tp2798
Rp2799
sbag1
(g73
g3
Ntp2800
Rp2801
(dp2802
g190
g1
(g8
g3
Ntp2803
Rp2804
(lp2805
F0.3826834323650889
aF0.9238795325112871
absg198
(dp2806
sg13
I0
sg194
I0
sg200
g468
sg201
g1
(g8
g3
Ntp2807
Rp2808
(lp2809
F1855.5765565280196
aF-321.01783363884135
absg195
I0
sg19
I00
sg20
g21
(I1785
I-435
I140
I229
tp2810
Rp2811
sbag1
(g2
g3
Ntp2812
Rp2813
(dp2814
g650
g1
(g8
g3
Ntp2815
Rp2816
(lp2817
F0.7071067811865472
aF0.7071067811865477
absg12
F0.19660345168853363
sg13
I0
sg655
I0
sg15
F227.9116882454314
sg16
I-1
sg176
F0.7853981633974483
sg18
I0
sg19
I00
sg20
g21
(I1615
I562
I199
I199
tp2818
Rp2819
sg659
(dp2820
sg661
g27
sg665
g1
(g8
g3
Ntp2821
Rp2822
(lp2823
F1714.6304504695838
aF661.1241120717569
absbag1
(g2
g3
Ntp2824
Rp2825
(dp2826
g650
g1
(g8
g3
Ntp2827
Rp2828
(lp2829
F0.9999999999999991
aF3.3306690738754696e-16
absg12
F0.19660345168853363
sg13
I0
sg655
I0
sg15
F227.9116882454314
sg16
I-1
sg176
F0.7853981633974483
sg18
I0
sg19
I00
sg20
g21
(I1791
I603
I177
I105
tp2830
Rp2831
sg659
(dp2832
sg661
g27
sg665
g1
(g8
g3
Ntp2833
Rp2834
(lp2835
F1879.115662189388
aF655.940317035872
absbag1
(g2
g3
Ntp2836
Rp2837
(dp2838
S'direction'
p2839
g1
(g8
g3
Ntp2840
Rp2841
(lp2842
F-2.7755575615628914e-16
aF1.0
absS'frac'
p2843
F0.19660345168853363
sS'prev_direction'
p2844
g1
(g8
g3
Ntp2845
Rp2846
(lp2847
F1.0
aF3.3306690738754726e-16
absg2417
I0
sS'layer'
p2848
I0
sS'radius'
p2849
F227.9116882454314
sS'mirror'
p2850
I-1
sS'theta'
p2851
F0.7853981633974483
sg19
I00
sS'rect'
p2852
g21
(I1542
I460
I105
I177
tp2853
Rp2854
sS'_Sprite__g'
p2855
(dp2856
sS'filename'
p2857
g27
sS'position'
p2858
g1
(g8
g3
Ntp2859
Rp2860
(lp2861
F1594.6563452354499
aF548.4810000819336
absbag1
(g2
g3
Ntp2862
Rp2863
(dp2864
g1234
g1
(g8
g3
Ntp2865
Rp2866
(lp2867
F-0.38268343236509045
aF-0.9238795325112863
absg1905
F0.19877594239892932
sg1243
g1
(g8
g3
Ntp2868
Rp2869
(lp2870
F-0.707106781186548
aF-0.7071067811865471
absg1240
I0
sg1241
I0
sg1907
F228.18158450703123
sg1908
I-1
sg1909
F0.39269908169872414
sg19
I00
sg1251
g21
(I1709
I-601
I93
I112
tp2871
Rp2872
sg1238
(dp2873
sg1242
g320
sg1247
g1
(g8
g3
Ntp2874
Rp2875
(lp2876
F1755.1874482913697
aF-545.9379277439112
absbag1
(g474
g3
Ntp2877
Rp2878
(dp2879
S'direction'
p2880
g1
(g8
g3
Ntp2881
Rp2882
(lp2883
F0.9999999999999998
aF3.885780586188048e-16
absS'_Sprite__g'
p2884
(dp2885
sg13
I0
sS'layer'
p2886
I0
sS'filename'
p2887
g482
sS'prev_direction'
p2888
g1
(g8
g3
Ntp2889
Rp2890
(lp2891
F-0.9238795325112866
aF-0.38268343236508995
absS'position'
p2892
g1
(g8
g3
Ntp2893
Rp2894
(lp2895
F1379.7186908140354
aF-596.9556626035754
absg1372
I0
sg19
I00
sS'rect'
p2896
g21
(I1314
I-648
I131
I104
tp2897
Rp2898
sbag1
(g474
g3
Ntp2899
Rp2900
(dp2901
g2839
g1
(g8
g3
Ntp2902
Rp2903
(lp2904
F1.0
aF3.885780586188049e-16
absg2855
(dp2905
sg2417
I0
sg2848
I0
sg2857
g482
sg2844
g1
(g8
g3
Ntp2906
Rp2907
(lp2908
F1.0
aF3.885780586188049e-16
absg2858
g1
(g8
g3
Ntp2909
Rp2910
(lp2911
F1978.1186908140355
aF-540.0889959369088
absg19
I00
sg2852
g21
(I1913
I-592
I131
I104
tp2912
Rp2913
sbag1
(g73
g3
Ntp2914
Rp2915
(dp2916
g494
g1
(g8
g3
Ntp2917
Rp2918
(lp2919
F0.7071067811865481
aF-0.7071067811865468
absg501
(dp2920
sg13
I0
sg498
I0
sg503
g85
sg504
g1
(g8
g3
Ntp2921
Rp2922
(lp2923
F838.6296828542002
aF148.20334915312964
absg18
I0
sg19
I00
sg20
g21
(I738
I48
I200
I200
tp2924
Rp2925
sbag1
(g2
g3
Ntp2926
Rp2927
(dp2928
g171
g1
(g8
g3
Ntp2929
Rp2930
(lp2931
F0.3826834323650893
aF0.9238795325112865
absg12
F0.19660345168853363
sg13
I0
sg175
I0
sg15
F227.9116882454314
sg16
I-1
sg176
F0.7853981633974483
sg177
I0
sg19
I00
sg20
g21
(I662
I-1148
I164
I203
tp2932
Rp2933
sg180
(dp2934
sg182
g27
sg183
g1
(g8
g3
Ntp2935
Rp2936
(lp2937
F744.8929182967071
aF-1047.0408605915597
absbag1
(g2
g3
Ntp2938
Rp2939
(dp2940
S'direction'
p2941
g1
(g8
g3
Ntp2942
Rp2943
(lp2944
F0.9238795325112868
aF0.3826834323650892
absS'frac'
p2945
F0.19877594239892932
sS'prev_direction'
p2946
g1
(g8
g3
Ntp2947
Rp2948
(lp2949
F0.923879532511287
aF0.3826834323650894
absg2417
I0
sS'layer'
p2950
I0
sS'radius'
p2951
F228.18158450703123
sS'mirror'
p2952
I-1
sS'theta'
p2953
F0.39269908169872414
sg19
I00
sS'rect'
p2954
g21
(I797
I-1030
I112
I93
tp2955
Rp2956
sS'_Sprite__g'
p2957
(dp2958
sS'filename'
p2959
g320
sS'position'
p2960
g1
(g8
g3
Ntp2961
Rp2962
(lp2963
F853.0993613563476
aF-984.2853513113903
absbag1
(g235
g3
Ntp2964
Rp2965
(dp2966
g77
g1
(g8
g3
Ntp2967
Rp2968
(lp2969
F0.707106781186547
aF0.7071067811865469
absg12
F0.19660345168853363
sg806
I00
sg13
I0
sg83
I0
sg15
F227.9116882454314
sg16
I-1
sg59
F0.7853981633974483
sg18
I0
sg19
I00
sg20
g21
(I-577
I214
I199
I199
tp2970
Rp2971
sg809
I1520
sg81
(dp2972
sg84
S'switch-left-f.png'
p2973
sg812
I-1
sg813
I3646059
sg86
g1
(g8
g3
Ntp2974
Rp2975
(lp2976
F-478.95332082463665
aF313.3965470550375
absbag1
(g474
g3
Ntp2977
Rp2978
(dp2979
g2941
g1
(g8
g3
Ntp2980
Rp2981
(lp2982
F0.707106781186547
aF0.7071067811865476
absg2957
(dp2983
sg2417
I0
sg2950
I0
sg2959
g482
sg2946
g1
(g8
g3
Ntp2984
Rp2985
(lp2986
F-1.0
aF-1.6653345369377348e-16
absg2960
g1
(g8
g3
Ntp2987
Rp2988
(lp2989
F-448.42383689424236
aF10.484647140948756
absg19
I00
sg2954
g21
(I-531
I-72
I166
I166
tp2990
Rp2991
sbag1
(g235
g3
Ntp2992
Rp2993
(dp2994
g53
g1
(g8
g3
Ntp2995
Rp2996
(lp2997
F0.7071067811865472
aF0.7071067811865474
absg12
F0.19660345168853363
sg57
I01
sg13
I0
sg58
I0
sg15
F227.9116882454314
sg16
I-1
sg59
F0.7853981633974483
sg18
I0
sg19
I00
sg20
g21
(I-383
I408
I199
I199
tp2998
Rp2999
sg62
I751
sg63
(dp3000
sg65
g590
sg67
I-1
sg68
I3647658
sg69
g1
(g8
g3
Ntp3001
Rp3002
(lp3003
F-284.3783627873864
aF507.971505092288
absbag1
(g73
g3
Ntp3004
Rp3005
(dp3006
g77
g1
(g8
g3
Ntp3007
Rp3008
(lp3009
F0.7071067811865479
aF-0.7071067811865469
absg81
(dp3010
sg13
I0
sg83
I0
sg84
g85
sg86
g1
(g8
g3
Ntp3011
Rp3012
(lp3013
F686.3098361838566
aF728.8452170094139
absg18
I0
sg19
I00
sg20
g21
(I586
I628
I200
I200
tp3014
Rp3015
sbag1
(g235
g3
Ntp3016
Rp3017
(dp3018
g77
g1
(g8
g3
Ntp3019
Rp3020
(lp3021
F0.9999999999999991
aF3.3306690738754696e-16
absg12
F0.19660345168853363
sg806
I00
sg13
I0
sg83
I0
sg15
F227.9116882454314
sg16
I-1
sg59
F0.7853981633974483
sg18
I0
sg19
I00
sg20
g21
(I328
I908
I177
I105
tp3022
Rp3023
sg809
I301
sg81
(dp3024
sg84
g2973
sg812
I-1
sg813
I3508792
sg86
g1
(g8
g3
Ntp3025
Rp3026
(lp3027
F416.7718764749253
aF960.6990930326716
absbag1
(g235
g3
Ntp3028
Rp3029
(dp3030
g149
g1
(g8
g3
Ntp3031
Rp3032
(lp3033
F-0.7071067811865469
aF-0.7071067811865475
absg12
F0.19660345168853363
sg153
I00
sg13
I0
sg154
I0
sg15
F227.9116882454314
sg16
I-1
sg59
F0.7853981633974483
sg18
I0
sg19
I00
sg20
g21
(I-39
I-190
I199
I199
tp3034
Rp3035
sg157
I1589
sg158
(dp3036
sg160
S'switch-left-f.png'
p3037
sg162
I-1
sg163
I3495313
sg164
g1
(g8
g3
Ntp3038
Rp3039
(lp3040
F59.511871380323
aF-91.72224797158034
absbag1
(g2
g3
Ntp3041
Rp3042
(dp3043
S'direction'
p3044
g1
(g8
g3
Ntp3045
Rp3046
(lp3047
F1.0
aF0.0
absg12
F0.19660345168853363
sg13
F0.05
sS'layer'
p3048
I0
sg15
F227.9116882454314
sg16
I-1
sg176
F0.7853981633974483
sS'speed'
p3049
I0
sg19
I00
sg20
g21
(I366
I448
I177
I105
tp3050
Rp3051
sS'_Sprite__g'
p3052
(dp3053
sS'filename'
p3054
g376
sS'position'
p3055
g1
(g8
g3
Ntp3056
Rp3057
(lp3058
F454.196974125315
aF500.76203295728425
absbag1
(g73
g3
Ntp3059
Rp3060
(dp3061
g190
g1
(g8
g3
Ntp3062
Rp3063
(lp3064
F-1.0
aF-9.43689570931383e-16
absg198
(dp3065
sg13
I0
sg194
I0
sg200
g468
sg201
g1
(g8
g3
Ntp3066
Rp3067
(lp3068
F1987.4470983432022
aF-1002.7155610579105
absg195
I0
sg19
I00
sg20
g21
(I1875
I-1031
I224
I59
tp3069
Rp3070
sbag1
(g73
g3
Ntp3071
Rp3072
(dp3073
S'direction'
p3074
g1
(g8
g3
Ntp3075
Rp3076
(lp3077
F-1.0
aF-9.43689570931383e-16
absS'prev_direction'
p3078
g1
(g8
g3
Ntp3079
Rp3080
(lp3081
F-1.0
aF-9.43689570931383e-16
absS'_Sprite__g'
p3082
(dp3083
sS'layer'
p3084
I0
sS'filename'
p3085
g468
sS'position'
p3086
g1
(g8
g3
Ntp3087
Rp3088
(lp3089
F1930.7571463432023
aF-779.4988750579103
absg19
I00
sS'rect'
p3090
g21
(I1818
I-808
I224
I59
tp3091
Rp3092
sbag1
(g73
g3
Ntp3093
Rp3094
(dp3095
g190
g1
(g8
g3
Ntp3096
Rp3097
(lp3098
F9.43689570931383e-16
aF-1.0
absg198
(dp3099
sg13
I0
sg194
I0
sg200
g468
sg201
g1
(g8
g3
Ntp3100
Rp3101
(lp3102
F3285.448490572539
aF134.6299946674194
absg195
I0
sg19
I00
sg20
g21
(I3256
I22
I59
I224
tp3103
Rp3104
sbag1
(g73
g3
Ntp3105
Rp3106
(dp3107
g3074
g1
(g8
g3
Ntp3108
Rp3109
(lp3110
F9.43689570931383e-16
aF-1.0
absg3078
g1
(g8
g3
Ntp3111
Rp3112
(lp3113
F9.43689570931383e-16
aF-1.0
absg3082
(dp3114
sg3084
I0
sg3085
g468
sg3086
g1
(g8
g3
Ntp3115
Rp3116
(lp3117
F3285.448490572539
aF-89.3700053325806
absg19
I00
sg3090
g21
(I3256
I-201
I59
I224
tp3118
Rp3119
sbag1
(g73
g3
Ntp3120
Rp3121
(dp3122
g3074
g1
(g8
g3
Ntp3123
Rp3124
(lp3125
F-1.0
aF-9.43689570931383e-16
absg3078
g1
(g8
g3
Ntp3126
Rp3127
(lp3128
F-1.0
aF-9.43689570931383e-16
absg3082
(dp3129
sg3084
I0
sg3085
g468
sg3086
g1
(g8
g3
Ntp3130
Rp3131
(lp3132
F515.5724248977896
aF-892.7135116315105
absg19
I00
sg3090
g21
(I403
I-921
I224
I59
tp3133
Rp3134
sbag1
(g235
g3
Ntp3135
Rp3136
(dp3137
S'direction'
p3138
g1
(g8
g3
Ntp3139
Rp3140
(lp3141
F-1.0
aF1.6653345369377348e-16
absg12
F0.19660345168853363
sS'switched'
p3142
I00
sg13
I0
sS'layer'
p3143
I0
sg15
F227.9116882454314
sg16
I-1
sg59
F0.7853981633974483
sg18
I0
sg19
I00
sg20
g21
(I121
I-837
I177
I105
tp3144
Rp3145
sS'touches'
p3146
I469
sS'_Sprite__g'
p3147
(dp3148
sS'filename'
p3149
S'switch-left-f.png'
p3150
sS'swap'
p3151
I-1
sS'prior_ticks'
p3152
I3615784
sS'position'
p3153
g1
(g8
g3
Ntp3154
Rp3155
(lp3156
F209.78895584836064
aF-785.6070009760837
absbag1
(g73
g3
Ntp3157
Rp3158
(dp3159
g650
g1
(g8
g3
Ntp3160
Rp3161
(lp3162
F0.9999999999999999
aF7.216449660063518e-16
absg659
(dp3163
sg13
I0
sg655
I0
sg661
g468
sg665
g1
(g8
g3
Ntp3164
Rp3165
(lp3166
F23.672866739449738
aF-814.6476840221455
absg18
I0
sg19
I00
sg20
g21
(I-88
I-843
I224
I59
tp3167
Rp3168
sbag1
(g73
g3
Ntp3169
Rp3170
(dp3171
g1345
g1
(g8
g3
Ntp3172
Rp3173
(lp3174
F-0.7071067811865475
aF0.7071067811865468
absg1349
(dp3175
sg13
I0
sg1351
I2
sg1352
g770
sg1353
g1
(g8
g3
Ntp3176
Rp3177
(lp3178
F989.083561708443
aF-426.3305201749194
absg18
I0
sg19
I00
sg20
g21
(I929
I-486
I121
I121
tp3179
Rp3180
sbag1
(g73
g3
Ntp3181
Rp3182
(dp3183
g1345
g1
(g8
g3
Ntp3184
Rp3185
(lp3186
F0.7071067811865477
aF-0.7071067811865472
absg1349
(dp3187
sg13
I0
sg1351
I2
sg1352
g770
sg1353
g1
(g8
g3
Ntp3188
Rp3189
(lp3190
F1237.1450218173713
aF-674.3919802838476
absg18
I0
sg19
I00
sg20
g21
(I1177
I-734
I121
I121
tp3191
Rp3192
sbag1
(c__main__
Car
p3193
g3
Ntp3194
Rp3195
(dp3196
S'direction'
p3197
g1
(g8
g3
Ntp3198
Rp3199
(lp3200
F-0.7071067811865476
aF0.7071067811865475
absS'prev_direction'
p3201
g1
(g8
g3
Ntp3202
Rp3203
(lp3204
F-0.7071067811865476
aF0.7071067811865475
absg13
I0
sS'layer'
p3205
I3
sS'phase'
p3206
F0.05534874770375791
sS'speed'
p3207
I0
sg19
I01
sS'rect'
p3208
g21
(I570
I467
I93
I93
tp3209
Rp3210
sS'prev_position'
p3211
g1
(g8
g3
Ntp3212
Rp3213
(lp3214
F616.1569382637385
aF513.3759032695457
absS'_Sprite__g'
p3215
(dp3216
sS'filename'
p3217
S'car-red-f.png'
p3218
sS'touched_piece'
p3219
g1
(g3193
g3
Ntp3220
Rp3221
(dp3222
S'direction'
p3223
g1
(g8
g3
Ntp3224
Rp3225
(lp3226
F0.8420655270431769
aF-0.5393752387396891
absS'prev_direction'
p3227
g1
(g8
g3
Ntp3228
Rp3229
(lp3230
F0.8420655270431769
aF-0.5393752387396891
absg13
I0
sS'layer'
p3231
I3
sS'phase'
p3232
F3.9093127776785934
sg1372
I0
sg19
I01
sS'rect'
p3233
g21
(I1243
I-140
I99
I83
tp3234
Rp3235
sS'prev_position'
p3236
g1
(g8
g3
Ntp3237
Rp3238
(lp3239
F1292.0398998622402
aF-99.99056487395347
absS'_Sprite__g'
p3240
(dp3241
sS'filename'
p3242
g3218
sS'touched_piece'
p3243
g1360
sS'following'
p3244
g1
(c__main__
Engine
p3245
g3
Ntp3246
Rp3247
(dp3248
S'direction'
p3249
g1
(g8
g3
Ntp3250
Rp3251
(lp3252
F0.7071067811865477
aF-0.7071067811865475
absS'prev_position'
p3253
g1
(g8
g3
Ntp3254
Rp3255
(lp3256
F1363.3789862931517
aF-164.5327751175366
absS'_Sprite__g'
p3257
(dp3258
sg13
F0.2
sS'layer'
p3259
I3
sS'filename'
p3260
S'thomas-f.png'
p3261
sS'prev_direction'
p3262
g1
(g8
g3
Ntp3263
Rp3264
(lp3265
F0.7071067811865477
aF-0.7071067811865475
absS'touched_piece'
p3266
g648
sS'position'
p3267
g1
(g8
g3
Ntp3268
Rp3269
(lp3270
F1363.3789862931517
aF-164.5327751175366
absS'speed'
p3271
F0.2
sg19
I01
sg20
g21
(I1312
I-215
I103
I103
tp3272
Rp3273
sbsS'position'
p3274
g1
(g8
g3
Ntp3275
Rp3276
(lp3277
F1292.0398998622402
aF-99.99056487395347
absbsS'following'
p3278
NsS'position'
p3279
g1
(g8
g3
Ntp3280
Rp3281
(lp3282
F616.1569382637385
aF513.3759032695457
absbag3247
ag3221
ag1
(g3193
g3
Ntp3283
Rp3284
(dp3285
S'direction'
p3286
g1
(g8
g3
Ntp3287
Rp3288
(lp3289
F0.9884641538352589
aF-0.15145499853998107
absS'prev_direction'
p3290
g1
(g8
g3
Ntp3291
Rp3292
(lp3293
F0.9884641538352589
aF-0.15145499853998107
absg13
I0
sS'layer'
p3294
I3
sS'phase'
p3295
F1.4454733843158034
sg3271
I0
sg19
I01
sg20
g21
(I1158
I-93
I93
I52
tp3296
Rp3297
sS'prev_position'
p3298
g1
(g8
g3
Ntp3299
Rp3300
(lp3301
F1204.757845817306
aF-67.05087384573507
absS'_Sprite__g'
p3302
(dp3303
sS'filename'
p3304
S'car-blue-f.png'
p3305
sg3266
g1360
sS'following'
p3306
g3221
sS'position'
p3307
g1
(g8
g3
Ntp3308
Rp3309
(lp3310
F1204.757845817306
aF-67.05087384573507
absbag1
(g3193
g3
Ntp3311
Rp3312
(dp3313
S'direction'
p3314
g1
(g8
g3
Ntp3315
Rp3316
(lp3317
F0.9932804329346656
aF-0.11573237035990977
absS'prev_direction'
p3318
g1
(g8
g3
Ntp3319
Rp3320
(lp3321
F0.9932804329346656
aF-0.11573237035990977
absg13
I0
sS'layer'
p3322
I3
sS'phase'
p3323
F2.368449154546437
sg3271
I0
sg19
I01
sg20
g21
(I1068
I-85
I92
I49
tp3324
Rp3325
sS'prev_position'
p3326
g1
(g8
g3
Ntp3327
Rp3328
(lp3329
F1114.6807172203498
aF-61.56943373573069
absS'_Sprite__g'
p3330
(dp3331
sS'filename'
p3332
g3305
sg3266
g492
sS'following'
p3333
g3284
sS'position'
p3334
g1
(g8
g3
Ntp3335
Rp3336
(lp3337
F1114.6807172203498
aF-61.56943373573069
absbag1
(g3193
g3
Ntp3338
Rp3339
(dp3340
g3286
g1
(g8
g3
Ntp3341
Rp3342
(lp3343
F0.8541282936822463
aF-0.5200623596564689
absg3290
g1
(g8
g3
Ntp3344
Rp3345
(lp3346
F0.8541282936822463
aF-0.5200623596564689
absg13
I0
sg3294
I3
sg3295
F4.922842187491836
sg3271
I0
sg19
I01
sg20
g21
(I976
I-69
I95
I79
tp3347
Rp3348
sg3298
g1
(g8
g3
Ntp3349
Rp3350
(lp3351
F1023.7064696286241
aF-30.26020240393636
absg3302
(dp3352
sg3304
g3305
sg3266
g492
sg3306
g3312
sg3307
g1
(g8
g3
Ntp3353
Rp3354
(lp3355
F1023.7064696286241
aF-30.26020240393636
absbag1
(c__main__
Overpass
p3356
g3
Ntp3357
Rp3358
(dp3359
S'direction'
p3360
g1
(g8
g3
Ntp3361
Rp3362
(lp3363
F-0.7071067811865477
aF0.7071067811865475
absS'_Sprite__g'
p3364
(dp3365
sg335
I0
sS'layer'
p3366
I4
sS'filename'
p3367
S'overpass-f.png'
p3368
sS'prev_direction'
p3369
g1
(g8
g3
Ntp3370
Rp3371
(lp3372
F1.0
aF0.0
absS'position'
p3373
g1
(g8
g3
Ntp3374
Rp3375
(lp3376
F1112.6942283285389
aF-549.9411867950153
absg19
I00
sS'rect'
p3377
g21
(I1006
I-655
I212
I212
tp3378
Rp3379
sbag1
(c__main__
Tunnel
p3380
g3
Ntp3381
Rp3382
(dp3383
g1672
g1
(g8
g3
Ntp3384
Rp3385
(lp3386
F0.7071067811865475
aF0.7071067811865476
absg1686
(dp3387
sg1635
I0
sg1678
I9
sg1692
S'tunnel1.png'
p3388
sg1688
g1
(g8
g3
Ntp3389
Rp3390
(lp3391
F0.7071067811865475
aF0.7071067811865476
absg1695
g1
(g8
g3
Ntp3392
Rp3393
(lp3394
F-4.745480787963899
aF-603.4311385661564
absg19
I00
sg1682
g21
(I-60
I-659
I113
I113
tp3395
Rp3396
sbag1
(g3380
g3
Ntp3397
Rp3398
(dp3399
g2941
g1
(g8
g3
Ntp3400
Rp3401
(lp3402
F1.0
aF0.0
absg2957
(dp3403
sg2417
I0
sg2950
I9
sg2959
S'tunnel1.png'
p3404
sg2946
g1
(g8
g3
Ntp3405
Rp3406
(lp3407
F1.0
aF0.0
absg2960
g1
(g8
g3
Ntp3408
Rp3409
(lp3410
F-453.14049586776855
aF546.8595041322312
absg19
I00
sg2954
g21
(I-513
I526
I120
I40
tp3411
Rp3412
sbag1
(g3380
g3
Ntp3413
Rp3414
(dp3415
S'direction'
p3416
g1
(g8
g3
Ntp3417
Rp3418
(lp3419
F1.0
aF5.551115123125783e-17
absS'_Sprite__g'
p3420
(dp3421
sg13
I0
sS'layer'
p3422
I9
sS'filename'
p3423
g3388
sS'position'
p3424
g1
(g8
g3
Ntp3425
Rp3426
(lp3427
F3281.486348686394
aF-189.19865549355802
absS'speed'
p3428
I0
sg19
I00
sg20
g21
(I3221
I-209
I120
I40
tp3429
Rp3430
sba.